;
; Definition file of libharfbuzz-0.dll
; Automatic generated by gendef
; written by Kai Tietz 2008
;
LIBRARY "libharfbuzz-0.dll"
EXPORTS
_Z12hb_parse_intPPKcS0_Pib
_Z13hb_parse_uintPPKcS0_Pjbi
_Z15_hb_shapers_getv
_Z15hb_parse_doublePPKcS0_Pdb
_Z16_hb_options_initv
_Z17hb_ot_layout_kernPK18hb_ot_shape_plan_tP9hb_font_tP11hb_buffer_t
_Z18data_create_arabicPK18hb_ot_shape_plan_t
_Z19data_destroy_arabicPv
_Z19hb_aat_layout_trackPK18hb_ot_shape_plan_tP9hb_font_tP11hb_buffer_t
_Z19hb_use_get_categoryj
_Z21_glyf_get_advance_varP9hb_font_tjb
_Z22_hb_ot_shape_normalizePK18hb_ot_shape_plan_tP11hb_buffer_tP9hb_font_t
_Z22hb_aat_layout_positionPK18hb_ot_shape_plan_tP9hb_font_tP11hb_buffer_t
_Z23hb_indic_get_categoriesj
_Z23setup_masks_arabic_planPK19arabic_shape_plan_tP11hb_buffer_t11hb_script_t
_Z24hb_aat_layout_substitutePK18hb_ot_shape_plan_tP9hb_font_tP11hb_buffer_t
_Z24hb_ot_layout_has_kerningP9hb_face_t
_Z25hb_aat_layout_compile_mapPK20hb_aat_map_builder_tP12hb_aat_map_t
_Z26_glyf_get_side_bearing_varP9hb_font_tjb
_Z26_hb_ot_shape_fallback_kernPK18hb_ot_shape_plan_tP9hb_font_tP11hb_buffer_t
_Z27hb_ot_layout_position_startP9hb_font_tP11hb_buffer_t
_Z28_hb_ot_shape_fallback_spacesPK18hb_ot_shape_plan_tP9hb_font_tP11hb_buffer_t
_Z29hb_ot_layout_substitute_startP9hb_font_tP11hb_buffer_t
_Z30hb_ot_layout_has_cross_kerningP9hb_face_t
_Z30hb_ot_layout_substitute_lookupPN2OT21hb_ot_apply_context_tERKNS_11SubstLookupERKNS_33hb_ot_layout_lookup_accelerator_tE
_Z31hb_ot_layout_table_find_featureP9hb_face_tjjPj
_Z32_hb_ot_name_language_for_ms_codej
_Z32hb_ot_layout_has_machine_kerningP9hb_face_t
_Z33_hb_ot_name_language_for_mac_codej
_Z34_hb_ot_metrics_get_position_commonP9hb_font_t19hb_ot_metrics_tag_tPi
_Z34hb_aat_layout_find_feature_mappingj
_Z34hb_ot_layout_delete_glyphs_inplaceP11hb_buffer_tPFbPK15hb_glyph_info_tE
_Z35_hb_ot_shape_fallback_mark_positionPK18hb_ot_shape_plan_tP9hb_font_tP11hb_buffer_tb
_Z35hb_aat_layout_remove_deleted_glyphsP11hb_buffer_t
_Z36hb_ot_layout_position_finish_offsetsP9hb_font_tP11hb_buffer_t
_Z37_hb_preprocess_text_vowel_constraintsPK18hb_ot_shape_plan_tP11hb_buffer_tP9hb_font_t
_Z37hb_ot_layout_position_finish_advancesP9hb_font_tP11hb_buffer_t
_Z39hb_aat_layout_zero_width_deleted_glyphsP11hb_buffer_t
_Z42_hb_unicode_is_emoji_Extended_Pictographicj
_Z54_hb_ot_shape_fallback_mark_position_recategorize_marksPK18hb_ot_shape_plan_tP9hb_font_tP11hb_buffer_t
_Z8snprintfPcyPKcz
_ZN11hb_buffer_t10copy_glyphEv
_ZN11hb_buffer_t10next_glyphEv
_ZN11hb_buffer_t12clear_outputEv
_ZN11hb_buffer_t12delete_glyphEv
_ZN11hb_buffer_t12message_implEP9hb_font_tPKcPc
_ZN11hb_buffer_t12output_glyphEj
_ZN11hb_buffer_t12swap_buffersEv
_ZN11hb_buffer_t13make_room_forEjj
_ZN11hb_buffer_t13remove_outputEv
_ZN11hb_buffer_t13replace_glyphEj
_ZN11hb_buffer_t13reverse_rangeEjj
_ZN11hb_buffer_t13shift_forwardEj
_ZN11hb_buffer_t14replace_glyphsEjjPKj
_ZN11hb_buffer_t15clear_positionsEv
_ZN11hb_buffer_t16reverse_clustersEv
_ZN11hb_buffer_t18get_scratch_bufferEPj
_ZN11hb_buffer_t18merge_out_clustersEjj
_ZN11hb_buffer_t19merge_clusters_implEjj
_ZN11hb_buffer_t20unsafe_to_break_implEjj
_ZN11hb_buffer_t24guess_segment_propertiesEv
_ZN11hb_buffer_t30unsafe_to_break_from_outbufferEjj
_ZN11hb_buffer_t3addEjj
_ZN11hb_buffer_t4sortEjjPFiPK15hb_glyph_info_tS2_E
_ZN11hb_buffer_t5clearEv
_ZN11hb_buffer_t5resetEv
_ZN11hb_buffer_t7enlargeEj
_ZN11hb_buffer_t7messageEP9hb_font_tPKcz
_ZN11hb_buffer_t7move_toEj
_ZN11hb_buffer_t7reverseEv
_ZN11hb_buffer_t8add_infoERK15hb_glyph_info_t
_ZN11hb_buffer_t9set_masksEjjjj
_ZN11hb_ot_map_t12lookup_map_t3cmpEPKvS2_
_ZN11hb_vector_tIN2OT15contour_point_tEE6resizeEi
_ZN11hb_vector_tIN2OT26hb_get_subtables_context_t15hb_applicable_tEE4pushEv
_ZN11hb_vector_tIPN9hb_pool_tIN22hb_serialize_context_t8object_tELj16EE7chunk_tEE5allocEj
_ZN12hb_hashmap_tIPKN22hb_serialize_context_t8object_tEjLS3_0ELj0EE13set_with_hashES3_jj
_ZN12hb_hashmap_tIPKN22hb_serialize_context_t8object_tEjLS3_0ELj0EE6item_t5clearEv
_ZN12hb_hashmap_tIjjLj4294967295ELj4294967295EE13set_with_hashEjjj
_ZN12hb_hashmap_tIjjLj4294967295ELj4294967295EE6item_t5clearEv
_ZN12hb_ot_face_t4finiEv
_ZN12hb_ot_face_t5init0EP9hb_face_t
_ZN13hb_zip_iter_tI17hb_sorted_array_tIKN2OT9HBGlyphIDEE10hb_array_tIS3_EE8__next__Ev
_ZN18hb_ot_shape_plan_t4finiEv
_ZN18hb_ot_shape_plan_t5init0EP9hb_face_tPK19hb_shape_plan_key_t
_ZN19hb_ot_map_builder_t11add_featureEj25hb_ot_map_feature_flags_tj
_ZN19hb_ot_map_builder_t11add_lookupsER11hb_ot_map_tjjjjbbb
_ZN19hb_ot_map_builder_t14feature_info_t3cmpEPKvS2_
_ZN19hb_ot_map_builder_t7compileER11hb_ot_map_tRK22hb_ot_shape_plan_key_t
_ZN19hb_ot_map_builder_t9add_pauseEjPFvPK18hb_ot_shape_plan_tP9hb_font_tP11hb_buffer_tE
_ZN19hb_ot_map_builder_tC1EP9hb_face_tPK23hb_segment_properties_t
_ZN19hb_ot_map_builder_tC2EP9hb_face_tPK23hb_segment_properties_t
_ZN19hb_ot_map_builder_tD1Ev
_ZN19hb_ot_map_builder_tD2Ev
_ZN19hb_shape_plan_key_t19user_features_matchEPKS_
_ZN19hb_shape_plan_key_t4initEbP9hb_face_tPK23hb_segment_properties_tPK12hb_feature_tjPKijPKPKc
_ZN19hb_shape_plan_key_t5equalEPKS_
_ZN20hb_aat_map_builder_t11add_featureEjj
_ZN20hb_aat_map_builder_t14feature_info_t3cmpEPKvS2_
_ZN20hb_aat_map_builder_t7compileER12hb_aat_map_t
_ZN20hb_user_data_array_t3getEP18hb_user_data_key_t
_ZN20hb_user_data_array_t3setEP18hb_user_data_key_tPvPFvS2_Ei
_ZN21hb_ot_shape_planner_t7compileER18hb_ot_shape_plan_tRK22hb_ot_shape_plan_key_t
_ZN21hb_ot_shape_planner_tC1EP9hb_face_tPK23hb_segment_properties_t
_ZN21hb_ot_shape_planner_tC2EP9hb_face_tPK23hb_segment_properties_t
_ZN21hb_sanitize_context_t12reset_objectEv
_ZN21hb_sanitize_context_t16start_processingEv
_ZN22hb_serialize_context_t13end_serializeEv
_ZN22hb_serialize_context_t4finiEv
_ZN25cff1_path_procs_extents_t4lineERN3CFF20cff1_cs_interp_env_tER20cff1_extents_param_tRKNS0_7point_tE
_ZN25cff1_path_procs_extents_t5curveERN3CFF20cff1_cs_interp_env_tER20cff1_extents_param_tRKNS0_7point_tES7_S7_
_ZN25cff2_path_procs_extents_t4lineERN3CFF20cff2_cs_interp_env_tER20cff2_extents_param_tRKNS0_7point_tE
_ZN25cff2_path_procs_extents_t5curveERN3CFF20cff2_cs_interp_env_tER20cff2_extents_param_tRKNS0_7point_tES7_S7_
_ZN2OT11OffsetTable9serializeIN22hb_face_builder_data_t13table_entry_tEEEbP22hb_serialize_context_tj10hb_array_tIT_E
_ZN2OT11SubstLookup18apply_recurse_funcEPNS_21hb_ot_apply_context_tEj
_ZN2OT11SubstLookup21dispatch_recurse_funcINS_27hb_collect_glyphs_context_tEEENT_8return_tEPS3_j
_ZN2OT11SubstLookup29dispatch_closure_recurse_funcEPNS_20hb_closure_context_tEj
_ZN2OT11TableRecord3cmpEPKvS2_
_ZN2OT15CoverageFormat29serializeI17hb_sorted_array_tIKNS_9HBGlyphIDEELPv0EEEbP22hb_serialize_context_tT_
_ZN2OT18GlyphVariationData13unpack_deltasERPKNS_7IntTypeIhLj1EEER11hb_vector_tIiERK10hb_array_tIKcE
_ZN2OT18GlyphVariationData13unpack_pointsERPKNS_7IntTypeIhLj1EEER11hb_vector_tIjERK10hb_array_tIKcE
_ZN2OT19CmapSubtableFormat413accelerator_t14get_glyph_funcEPKvjPj
_ZN2OT20LigatureSubstFormat19serializeEP22hb_serialize_context_t17hb_sorted_array_tIKNS_9HBGlyphIDEE10hb_array_tIKjES7_IS5_ES9_SA_
_ZN2OT21hb_ot_apply_context_t10init_itersEv
_ZN2OT21hb_ot_apply_context_t19skipping_iterator_t4nextEv
_ZN2OT21hb_ot_apply_context_t19skipping_iterator_t4prevEv
_ZN2OT21hb_ot_apply_context_tC1EjP9hb_font_tP11hb_buffer_t
_ZN2OT22contour_point_vector_t6extendERK10hb_array_tINS_15contour_point_tEE
_ZN2OT26hb_get_subtables_context_t8apply_toINS_14ContextFormat1EEEbPKvPNS_21hb_ot_apply_context_tE
_ZN2OT26hb_get_subtables_context_t8apply_toINS_14ContextFormat2EEEbPKvPNS_21hb_ot_apply_context_tE
_ZN2OT26hb_get_subtables_context_t8apply_toINS_14ContextFormat3EEEbPKvPNS_21hb_ot_apply_context_tE
_ZN2OT26hb_get_subtables_context_t8apply_toINS_14PairPosFormat1EEEbPKvPNS_21hb_ot_apply_context_tE
_ZN2OT26hb_get_subtables_context_t8apply_toINS_14PairPosFormat2EEEbPKvPNS_21hb_ot_apply_context_tE
_ZN2OT26hb_get_subtables_context_t8apply_toINS_16SinglePosFormat1EEEbPKvPNS_21hb_ot_apply_context_tE
_ZN2OT26hb_get_subtables_context_t8apply_toINS_16SinglePosFormat2EEEbPKvPNS_21hb_ot_apply_context_tE
_ZN2OT26hb_get_subtables_context_t8apply_toINS_17CursivePosFormat1EEEbPKvPNS_21hb_ot_apply_context_tE
_ZN2OT26hb_get_subtables_context_t8apply_toINS_17MarkLigPosFormat1EEEbPKvPNS_21hb_ot_apply_context_tE
_ZN2OT26hb_get_subtables_context_t8apply_toINS_18MarkBasePosFormat1EEEbPKvPNS_21hb_ot_apply_context_tE
_ZN2OT26hb_get_subtables_context_t8apply_toINS_18MarkMarkPosFormat1EEEbPKvPNS_21hb_ot_apply_context_tE
_ZN2OT26hb_get_subtables_context_t8apply_toINS_18SingleSubstFormat1EEEbPKvPNS_21hb_ot_apply_context_tE
_ZN2OT26hb_get_subtables_context_t8apply_toINS_18SingleSubstFormat2EEEbPKvPNS_21hb_ot_apply_context_tE
_ZN2OT26hb_get_subtables_context_t8apply_toINS_19ChainContextFormat1EEEbPKvPNS_21hb_ot_apply_context_tE
_ZN2OT26hb_get_subtables_context_t8apply_toINS_19ChainContextFormat2EEEbPKvPNS_21hb_ot_apply_context_tE
_ZN2OT26hb_get_subtables_context_t8apply_toINS_19ChainContextFormat3EEEbPKvPNS_21hb_ot_apply_context_tE
_ZN2OT26hb_get_subtables_context_t8apply_toINS_20LigatureSubstFormat1EEEbPKvPNS_21hb_ot_apply_context_tE
_ZN2OT26hb_get_subtables_context_t8apply_toINS_20MultipleSubstFormat1EEEbPKvPNS_21hb_ot_apply_context_tE
_ZN2OT26hb_get_subtables_context_t8apply_toINS_21AlternateSubstFormat1EEEbPKvPNS_21hb_ot_apply_context_tE
_ZN2OT26hb_get_subtables_context_t8apply_toINS_30ReverseChainSingleSubstFormat1EEEbPKvPNS_21hb_ot_apply_context_tE
_ZN2OT33hb_ot_layout_lookup_accelerator_t4initINS_11SubstLookupEEEvRKT_
_ZN2OT4CBDT13accelerator_t4initEP9hb_face_t
_ZN2OT4cff113accelerator_t7gname_t3cmpEPKvS4_
_ZN2OT4cff119accelerator_templ_tIN3CFF25cff1_private_dict_opset_tENS2_31cff1_private_dict_values_base_tINS2_10dict_val_tEEEE4finiEv
_ZN2OT4cff119accelerator_templ_tIN3CFF25cff1_private_dict_opset_tENS2_31cff1_private_dict_values_base_tINS2_10dict_val_tEEEE4initEP9hb_face_t
_ZN2OT4cff129lookup_expert_charset_for_sidEj
_ZN2OT4cff131lookup_expert_charset_for_glyphEj
_ZN2OT4cff131lookup_expert_encoding_for_codeEj
_ZN2OT4cff132lookup_standard_encoding_for_sidEj
_ZN2OT4cff133lookup_standard_encoding_for_codeEj
_ZN2OT4cff136lookup_expert_subset_charset_for_sidEj
_ZN2OT4cff138lookup_expert_subset_charset_for_glyphEj
_ZN2OT4cff219accelerator_templ_tIN3CFF25cff2_private_dict_opset_tENS2_31cff2_private_dict_values_base_tINS2_10dict_val_tEEEE4finiEv
_ZN2OT4cff219accelerator_templ_tIN3CFF25cff2_private_dict_opset_tENS2_31cff2_private_dict_values_base_tINS2_10dict_val_tEEEE4initEP9hb_face_t
_ZN2OT4cmap13accelerator_t14get_glyph_fromINS_12CmapSubtableEEEbPKvjPj
_ZN2OT4cmap13accelerator_t14get_glyph_fromINS_20CmapSubtableFormat12EEEbPKvjPj
_ZN2OT4cmap13accelerator_t21get_glyph_from_symbolINS_12CmapSubtableEEEbPKvjPj
_ZN2OT4glyf16composite_iter_t8__next__Ev
_ZN2OT4glyf5Glyph11SimpleGlyph11read_pointsERPKNS_7IntTypeIhLj1EEERNS_22contour_point_vector_tERK10hb_array_tIKcEPFvRNS_15contour_point_tEfENS1_19simple_glyph_flag_tESJ_
_ZN2OT4name13accelerator_t4initEP9hb_face_t
_ZN2OT4post13accelerator_t8cmp_gidsEPKvS3_Pv
_ZN2OT6Lookup9serializeEP22hb_serialize_context_tjjj
_ZN2OT7ArrayOfINS_9HBGlyphIDENS_7IntTypeItLj2EEEE9serializeEP22hb_serialize_context_tj
_ZN2OT8Coverage6iter_t8__next__Ev
_ZN2OT8Coverage6iter_tC1ERKS0_
_ZN2OT9PosLookup18apply_recurse_funcEPNS_21hb_ot_apply_context_tEj
_ZN3AAT16StateTableDriverINS_13ExtendedTypesENS_12Format1EntryILb1EE9EntryDataEE5driveINS_19KerxSubTableFormat1INS_18KerxSubTableHeaderEE16driver_context_tEEEvPT_
_ZN3AAT16StateTableDriverINS_13ExtendedTypesENS_13LigatureEntryILb1EE9EntryDataEE5driveINS_16LigatureSubtableIS1_E16driver_context_tEEEvPT_
_ZN3AAT16StateTableDriverINS_13ExtendedTypesENS_17InsertionSubtableIS1_E9EntryDataEE5driveINS3_16driver_context_tEEEvPT_
_ZN3AAT16StateTableDriverINS_13ExtendedTypesENS_18ContextualSubtableIS1_E9EntryDataEE5driveINS3_16driver_context_tEEEvPT_
_ZN3AAT16StateTableDriverINS_13ExtendedTypesENS_19KerxSubTableFormat4INS_18KerxSubTableHeaderEE9EntryDataEE5driveINS4_16driver_context_tEEEvPT_
_ZN3AAT16StateTableDriverINS_13ExtendedTypesEvE5driveINS_21RearrangementSubtableIS1_E16driver_context_tEEEvPT_
_ZN3AAT16StateTableDriverINS_13ObsoleteTypesENS_17InsertionSubtableIS1_E9EntryDataEE5driveINS3_16driver_context_tEEEvPT_
_ZN3AAT16StateTableDriverINS_13ObsoleteTypesENS_18ContextualSubtableIS1_E9EntryDataEE5driveINS3_16driver_context_tEEEvPT_
_ZN3AAT16StateTableDriverINS_13ObsoleteTypesEvE5driveINS_16LigatureSubtableIS1_E16driver_context_tEEEvPT_
_ZN3AAT16StateTableDriverINS_13ObsoleteTypesEvE5driveINS_19KerxSubTableFormat1IN2OT21KernAATSubTableHeaderEE16driver_context_tEEEvPT_
_ZN3AAT16StateTableDriverINS_13ObsoleteTypesEvE5driveINS_21RearrangementSubtableIS1_E16driver_context_tEEEvPT_
_ZN3AAT19KerxSubTableFormat4INS_18KerxSubTableHeaderEE16driver_context_t10transitionEPNS_16StateTableDriverINS_13ExtendedTypesENS2_9EntryDataEEERKNS_5EntryIS6_EE
_ZN3AAT22hb_aat_apply_context_t14set_ankr_tableEPKNS_4ankrE
_ZN3AAT22hb_aat_apply_context_tC1EPK18hb_ot_shape_plan_tP9hb_font_tP11hb_buffer_tP9hb_blob_t
_ZN3AAT22hb_aat_apply_context_tC2EPK18hb_ot_shape_plan_tP9hb_font_tP11hb_buffer_tP9hb_blob_t
_ZN3AAT22hb_aat_apply_context_tD1Ev
_ZN3AAT22hb_aat_apply_context_tD2Ev
_ZN3CFF10cs_opset_tINS_11blend_arg_tE23cff2_cs_opset_extents_tNS_20cff2_cs_interp_env_tE20cff2_extents_param_t25cff2_path_procs_extents_tE10process_opEjRS3_RS4_
_ZN3CFF10cs_opset_tINS_8number_tE23cff1_cs_opset_extents_tNS_20cff1_cs_interp_env_tE20cff1_extents_param_t25cff1_path_procs_extents_tE10process_opEjRS3_RS4_
_ZN3CFF11arg_stack_tINS_8number_tEE8pop_uintEv
_ZN3CFF11cff_stack_tINS_8number_tELi513EE4initEv
_ZN3CFF12dict_opset_t10process_opEjRNS_12interp_env_tINS_8number_tEEE
_ZN3CFF12interp_env_tINS_8number_tEE8fetch_opEv
_ZN3CFF12path_procs_tI25cff1_path_procs_extents_tNS_20cff1_cs_interp_env_tE20cff1_extents_param_tE9hvcurvetoERS2_RS3_
_ZN3CFF12path_procs_tI25cff1_path_procs_extents_tNS_20cff1_cs_interp_env_tE20cff1_extents_param_tE9vhcurvetoERS2_RS3_
_ZN3CFF12path_procs_tI25cff2_path_procs_extents_tNS_20cff2_cs_interp_env_tE20cff2_extents_param_tE9hvcurvetoERS2_RS3_
_ZN3CFF12path_procs_tI25cff2_path_procs_extents_tNS_20cff2_cs_interp_env_tE20cff2_extents_param_tE9vhcurvetoERS2_RS3_
_ZN3CFF15cs_interp_env_tINS_11blend_arg_tENS_5SubrsIN2OT7IntTypeIjLj4EEEEEE9call_subrERKNS_14biased_subrs_tIS6_EENS_9cs_type_tE
_ZN3CFF15cs_interp_env_tINS_8number_tENS_5SubrsIN2OT7IntTypeItLj2EEEEEE9call_subrERKNS_14biased_subrs_tIS6_EENS_9cs_type_tE
_ZN3CFF15parsed_values_tINS_8op_str_tEE6add_opEjRKNS_14byte_str_ref_tE
_ZN3CFF18dict_interpreter_tINS_25cff1_private_dict_opset_tENS_31cff1_private_dict_values_base_tINS_10dict_val_tEEENS_12interp_env_tINS_8number_tEEEE9interpretERS4_
_ZN3CFF20cff2_cs_interp_env_t8eval_argEj
_ZN3CFF21cff1_top_dict_opset_t10process_opEjRNS_26cff1_top_dict_interp_env_tERNS_22cff1_top_dict_values_tE
_ZN3CFF25cff2_private_dict_opset_t10process_opEjRNS_27cff2_priv_dict_interp_env_tERNS_31cff2_private_dict_values_base_tINS_10dict_val_tEEE
_ZN8hb_set_t15page_for_insertEj
_ZN8hb_set_t3addEj
_ZN8hb_set_t6page_t9add_rangeEjj
_ZN8hb_set_t9add_rangeEjj
_ZN8hb_set_tD1Ev
_ZN9hb_blob_t17try_make_writableEv
_ZN9hb_blob_t25try_make_writable_inplaceEv
_ZN9hb_blob_t30try_make_writable_inplace_unixEv
_ZN9hb_font_t12has_func_setEj
_ZN9hb_font_t29guess_v_origin_minus_h_originEjPiS0_
_ZN9hb_font_t34get_glyph_contour_point_for_originEjj14hb_direction_tPiS1_
_ZN9hb_font_t8has_funcEj
_ZNK11hb_ot_map_t10substituteEPK18hb_ot_shape_plan_tP9hb_font_tP11hb_buffer_t
_ZNK11hb_ot_map_t15collect_lookupsEjP8hb_set_t
_ZNK11hb_ot_map_t5applyI9GPOSProxyEEvRKT_PK18hb_ot_shape_plan_tP9hb_font_tP11hb_buffer_t
_ZNK11hb_ot_map_t5applyI9GSUBProxyEEvRKT_PK18hb_ot_shape_plan_tP9hb_font_tP11hb_buffer_t
_ZNK11hb_ot_map_t8positionEPK18hb_ot_shape_plan_tP9hb_font_tP11hb_buffer_t
_ZNK13hb_zip_iter_tIN2OT8Coverage6iter_tE10hb_array_tIKNS0_8OffsetToINS0_11LigatureSetENS0_7IntTypeItLj2EEELb1EEEEE8__item__Ev
_ZNK13hb_zip_iter_tIN2OT8Coverage6iter_tE10hb_array_tIKNS0_9HBGlyphIDEEE8__item__Ev
_ZNK16hb_lazy_loader_tIN2OT18CBDT_accelerator_tE21hb_face_lazy_loader_tIS1_Lj35EE9hb_face_tLj35ES1_E10get_storedEv
_ZNK16hb_lazy_loader_tIN2OT18GDEF_accelerator_tE21hb_face_lazy_loader_tIS1_Lj21EE9hb_face_tLj21ES1_E10get_storedEv
_ZNK16hb_lazy_loader_tIN2OT18GPOS_accelerator_tE21hb_face_lazy_loader_tIS1_Lj23EE9hb_face_tLj23ES1_E10get_storedEv
_ZNK16hb_lazy_loader_tIN2OT18GSUB_accelerator_tE21hb_face_lazy_loader_tIS1_Lj22EE9hb_face_tLj22ES1_E10get_storedEv
_ZNK16hb_lazy_loader_tIN2OT18cff1_accelerator_tE21hb_face_lazy_loader_tIS1_Lj13EE9hb_face_tLj13ES1_E10get_storedEv
_ZNK16hb_lazy_loader_tIN2OT18cmap_accelerator_tE21hb_face_lazy_loader_tIS1_Lj2EE9hb_face_tLj2ES1_E10get_storedEv
_ZNK16hb_lazy_loader_tIN2OT18glyf_accelerator_tE21hb_face_lazy_loader_tIS1_Lj12EE9hb_face_tLj12ES1_E10get_storedEv
_ZNK16hb_lazy_loader_tIN2OT18gvar_accelerator_tE21hb_face_lazy_loader_tIS1_Lj18EE9hb_face_tLj18ES1_E10get_storedEv
_ZNK16hb_lazy_loader_tIN2OT18hmtx_accelerator_tE21hb_face_lazy_loader_tIS1_Lj4EE9hb_face_tLj4ES1_E10get_storedEv
_ZNK16hb_lazy_loader_tIN2OT18post_accelerator_tE21hb_face_lazy_loader_tIS1_Lj6EE9hb_face_tLj6ES1_E10get_storedEv
_ZNK16hb_lazy_loader_tIN2OT18vmtx_accelerator_tE21hb_face_lazy_loader_tIS1_Lj11EE9hb_face_tLj11ES1_E10get_storedEv
_ZNK16hb_lazy_loader_tIN2OT3OS2E22hb_table_lazy_loader_tIS1_Lj5EE9hb_face_tLj5E9hb_blob_tE10get_storedEv
_ZNK16hb_lazy_loader_tIN2OT4MATHE22hb_table_lazy_loader_tIS1_Lj38EE9hb_face_tLj38E9hb_blob_tE10get_storedEv
_ZNK16hb_lazy_loader_tIN2OT4MVARE22hb_table_lazy_loader_tIS1_Lj19EE9hb_face_tLj19E9hb_blob_tE10get_storedEv
_ZNK16hb_lazy_loader_tIN2OT4hheaE22hb_table_lazy_loader_tIS1_Lj3EE9hb_face_tLj3E9hb_blob_tE10get_storedEv
_ZNK16hb_lazy_loader_tIN2OT4kernE22hb_table_lazy_loader_tIS1_Lj20EE9hb_face_tLj20E9hb_blob_tE10get_storedEv
_ZNK16hb_lazy_loader_tIN2OT4vheaE22hb_table_lazy_loader_tIS1_Lj10EE9hb_face_tLj10E9hb_blob_tE10get_storedEv
_ZNK16hb_lazy_loader_tIN3AAT4featE22hb_table_lazy_loader_tIS1_Lj32EE9hb_face_tLj32E9hb_blob_tE10get_storedEv
_ZNK16hb_lazy_loader_tIN3AAT4mortE22hb_table_lazy_loader_tIS1_Lj26EE9hb_face_tLj26E9hb_blob_tE10get_storedEv
_ZNK16hb_lazy_loader_tIN3AAT4morxE22hb_table_lazy_loader_tIS1_Lj25EE9hb_face_tLj25E9hb_blob_tE10get_storedEv
_ZNK18hb_ot_shape_plan_t10substituteEP9hb_font_tP11hb_buffer_t
_ZNK18hb_ot_shape_plan_t8positionEP9hb_font_tP11hb_buffer_t
_ZNK2OT10IndexArray14add_indexes_toEP8hb_set_t
_ZNK2OT11OffsetTable8sanitizeEP21hb_sanitize_context_t
_ZNK2OT11ValueFormat11apply_valueEPNS_21hb_ot_apply_context_tEPKvPKNS_7IntTypeItLj2EEER19hb_glyph_position_t
_ZNK2OT11ValueFormat22sanitize_value_devicesEP21hb_sanitize_context_tPKvPKNS_7IntTypeItLj2EEE
_ZNK2OT12ChainContext8dispatchI21hb_sanitize_context_tJEEENT_8return_tEPS3_DpOT0_
_ZNK2OT12ChainContext8dispatchINS_27hb_collect_glyphs_context_tEJEEENT_8return_tEPS3_DpOT0_
_ZNK2OT12CmapSubtable8sanitizeEP21hb_sanitize_context_t
_ZNK2OT12CmapSubtable9get_glyphEjPj
_ZNK2OT13RecordArrayOfINS_6ScriptEE10find_indexEjPj
_ZNK2OT14ContextFormat15applyEPNS_21hb_ot_apply_context_tE
_ZNK2OT14ContextFormat17closureEPNS_20hb_closure_context_tE
_ZNK2OT14ContextFormat27closureEPNS_20hb_closure_context_tE
_ZNK2OT14ContextFormat35applyEPNS_21hb_ot_apply_context_tE
_ZNK2OT14PairPosFormat15applyEPNS_21hb_ot_apply_context_tE
_ZNK2OT14PairPosFormat25applyEPNS_21hb_ot_apply_context_tE
_ZNK2OT14UnsizedArrayOfINS_7IntTypeIhLj1EEEE8sanitizeIJEEEbP21hb_sanitize_context_tjDpOT_
_ZNK2OT14UnsizedArrayOfINS_8OffsetToINS_7ArrayOfIN3AAT6AnchorENS_7IntTypeIjLj4EEEEENS5_ItLj2EEELb0EEEE8sanitizeIJRPKvEEEbP21hb_sanitize_context_tjDpOT_
_ZNK2OT14UnsizedArrayOfINS_8OffsetToINS_7ArrayOfINS_7IntTypeIsLj2EEENS3_ItLj2EEEEES5_Lb1EEEE8sanitizeIJRPKvEEEbP21hb_sanitize_context_tjDpOT_
_ZNK2OT14VariationStore8sanitizeEP21hb_sanitize_context_t
_ZNK2OT14VariationStore9get_deltaEjjPKij
_ZNK2OT15MathValueRecord8sanitizeEP21hb_sanitize_context_tPKv
_ZNK2OT16OpenTypeFontFile8sanitizeEP21hb_sanitize_context_t
_ZNK2OT17CursivePosFormat15applyEPNS_21hb_ot_apply_context_tE
_ZNK2OT17MarkLigPosFormat15applyEPNS_21hb_ot_apply_context_tE
_ZNK2OT17PosLookupSubTable8dispatchI21hb_sanitize_context_tJEEENT_8return_tEPS3_jDpOT0_
_ZNK2OT17PosLookupSubTable8dispatchINS_21hb_ot_apply_context_tEJEEENT_8return_tEPS3_jDpOT0_
_ZNK2OT17PosLookupSubTable8dispatchINS_26hb_get_subtables_context_tEJEEENT_8return_tEPS3_jDpOT0_
_ZNK2OT17PosLookupSubTable8dispatchINS_27hb_collect_glyphs_context_tEJEEENT_8return_tEPS3_jDpOT0_
_ZNK2OT17PosLookupSubTable8dispatchINS_29hb_collect_coverage_context_tI24hb_set_digest_combiner_tI27hb_set_digest_lowest_bits_tImLj4EES3_IS4_ImLj0EES4_ImLj9EEEEEEJEEENT_8return_tEPSB_jDpOT0_
_ZNK2OT17hb_kern_machine_tI34hb_ot_shape_fallback_kern_driver_tE4kernEP9hb_font_tP11hb_buffer_tjb
_ZNK2OT17hb_kern_machine_tIN3AAT19KerxSubTableFormat2INS1_18KerxSubTableHeaderEE13accelerator_tEE4kernEP9hb_font_tP11hb_buffer_tjb
_ZNK2OT17hb_kern_machine_tIN3AAT19KerxSubTableFormat2INS_21KernAATSubTableHeaderEE13accelerator_tEE4kernEP9hb_font_tP11hb_buffer_tjb
_ZNK2OT18MarkBasePosFormat15applyEPNS_21hb_ot_apply_context_tE
_ZNK2OT18MarkMarkPosFormat15applyEPNS_21hb_ot_apply_context_tE
_ZNK2OT18SingleSubstFormat27closureEPNS_20hb_closure_context_tE
_ZNK2OT19ChainContextFormat15applyEPNS_21hb_ot_apply_context_tE
_ZNK2OT19ChainContextFormat17closureEPNS_20hb_closure_context_tE
_ZNK2OT19ChainContextFormat25applyEPNS_21hb_ot_apply_context_tE
_ZNK2OT19ChainContextFormat27closureEPNS_20hb_closure_context_tE
_ZNK2OT19ChainContextFormat314collect_glyphsEPNS_27hb_collect_glyphs_context_tE
_ZNK2OT19ChainContextFormat35applyEPNS_21hb_ot_apply_context_tE
_ZNK2OT19ChainContextFormat37closureEPNS_20hb_closure_context_tE
_ZNK2OT19CmapSubtableFormat413accelerator_t9get_glyphEjPj
_ZNK2OT19SubstLookupSubTable8dispatchI21hb_sanitize_context_tJEEENT_8return_tEPS3_jDpOT0_
_ZNK2OT19SubstLookupSubTable8dispatchINS_20hb_closure_context_tEJEEENT_8return_tEPS3_jDpOT0_
_ZNK2OT19SubstLookupSubTable8dispatchINS_21hb_ot_apply_context_tEJEEENT_8return_tEPS3_jDpOT0_
_ZNK2OT19SubstLookupSubTable8dispatchINS_24hb_would_apply_context_tEJEEENT_8return_tEPS3_jDpOT0_
_ZNK2OT19SubstLookupSubTable8dispatchINS_26hb_get_subtables_context_tEJEEENT_8return_tEPS3_jDpOT0_
_ZNK2OT19SubstLookupSubTable8dispatchINS_27hb_collect_glyphs_context_tEJEEENT_8return_tEPS3_jDpOT0_
_ZNK2OT19SubstLookupSubTable8dispatchINS_29hb_collect_coverage_context_tI24hb_set_digest_combiner_tI27hb_set_digest_lowest_bits_tImLj4EES3_IS4_ImLj0EES4_ImLj9EEEEEEJEEENT_8return_tEPSB_jDpOT0_
_ZNK2OT20LigatureSubstFormat114collect_glyphsEPNS_27hb_collect_glyphs_context_tE
_ZNK2OT20LigatureSubstFormat15applyEPNS_21hb_ot_apply_context_tE
_ZNK2OT20LigatureSubstFormat17closureEPNS_20hb_closure_context_tE
_ZNK2OT20MultipleSubstFormat114collect_glyphsEPNS_27hb_collect_glyphs_context_tE
_ZNK2OT20MultipleSubstFormat15applyEPNS_21hb_ot_apply_context_tE
_ZNK2OT20MultipleSubstFormat17closureEPNS_20hb_closure_context_tE
_ZNK2OT20TupleVariationHeader16calculate_scalarEPKij10hb_array_tIKNS_7F2DOT14EE
_ZNK2OT21AlternateSubstFormat114collect_glyphsEPNS_27hb_collect_glyphs_context_tE
_ZNK2OT21AlternateSubstFormat15applyEPNS_21hb_ot_apply_context_tE
_ZNK2OT21AlternateSubstFormat17closureEPNS_20hb_closure_context_tE
_ZNK2OT21hb_ot_apply_context_t13replace_glyphEj
_ZNK2OT21hb_ot_apply_context_t16_set_glyph_classEjjbb
_ZNK2OT24VarSizedBinSearchArrayOfIN3AAT12LookupSingleINS_8OffsetToINS_7ArrayOfINS1_6AnchorENS_7IntTypeIjLj4EEEEENS6_ItLj2EEELb0EEEEEE18last_is_terminatorEv
_ZNK2OT24VarSizedBinSearchArrayOfIN3AAT12LookupSingleINS_8OffsetToINS_7ArrayOfINS_7IntTypeIsLj2EEENS5_ItLj2EEEEES7_Lb1EEEEEE18last_is_terminatorEv
_ZNK2OT24VarSizedBinSearchArrayOfIN3AAT18LookupSegmentArrayINS_7IntTypeIjLj4EEEEEE18last_is_terminatorEv
_ZNK2OT24VarSizedBinSearchArrayOfIN3AAT18LookupSegmentArrayINS_8OffsetToINS_7ArrayOfINS1_6AnchorENS_7IntTypeIjLj4EEEEENS6_ItLj2EEELb0EEEEEE18last_is_terminatorEv
_ZNK2OT24VarSizedBinSearchArrayOfIN3AAT18LookupSegmentArrayINS_8OffsetToINS_7ArrayOfINS_7IntTypeIsLj2EEENS5_ItLj2EEEEES7_Lb1EEEEEE18last_is_terminatorEv
_ZNK2OT24VarSizedBinSearchArrayOfIN3AAT19LookupSegmentSingleINS_8OffsetToINS_7ArrayOfINS1_6AnchorENS_7IntTypeIjLj4EEEEENS6_ItLj2EEELb0EEEEEE18last_is_terminatorEv
_ZNK2OT24VarSizedBinSearchArrayOfIN3AAT19LookupSegmentSingleINS_8OffsetToINS_7ArrayOfINS_7IntTypeIsLj2EEENS5_ItLj2EEEEES7_Lb1EEEEEE18last_is_terminatorEv
_ZNK2OT30ReverseChainSingleSubstFormat15applyEPNS_21hb_ot_apply_context_tE
_ZNK2OT30ReverseChainSingleSubstFormat17closureEPNS_20hb_closure_context_tE
_ZNK2OT4BASE8sanitizeEP21hb_sanitize_context_t
_ZNK2OT4CBDT13accelerator_t11get_extentsEP9hb_font_tjP18hb_glyph_extents_t
_ZNK2OT4CBLC8sanitizeEP21hb_sanitize_context_t
_ZNK2OT4GDEF14is_blacklistedEP9hb_blob_tP9hb_face_t
_ZNK2OT4GDEF8sanitizeEP21hb_sanitize_context_t
_ZNK2OT4GPOS14is_blacklistedEP9hb_blob_tP9hb_face_t
_ZNK2OT4GSUB14is_blacklistedEP9hb_blob_tP9hb_face_t
_ZNK2OT4MVAR7get_varEjPKij
_ZNK2OT4VORG8sanitizeEP21hb_sanitize_context_t
_ZNK2OT4cff113accelerator_t11get_extentsEP9hb_font_tjP18hb_glyph_extents_t
_ZNK2OT4cff113accelerator_t19get_seac_componentsEjPjS2_
_ZNK2OT4cff213accelerator_t11get_extentsEP9hb_font_tjP18hb_glyph_extents_t
_ZNK2OT4cmap13find_subtableEjj
_ZNK2OT4cmap8sanitizeEP21hb_sanitize_context_t
_ZNK2OT4glyf13accelerator_t10get_pointsINS1_19points_aggregator_tEEEbP9hb_font_tjT_
_ZNK2OT4glyf13accelerator_t11get_extentsEP9hb_font_tjP18hb_glyph_extents_t
_ZNK2OT4glyf13accelerator_t13glyph_for_gidEjb
_ZNK2OT4glyf5Glyph10get_pointsIZNKS0_13accelerator_t10get_pointsINS3_19points_aggregator_tEEEbP9hb_font_tjT_EUljE_EEbS8_S7_RNS_22contour_point_vector_tEbj
_ZNK2OT4glyf5Glyph11SimpleGlyph18get_contour_pointsERNS_22contour_point_vector_tEb
_ZNK2OT4gvar10get_offsetEj
_ZNK2OT4gvar13accelerator_t22apply_deltas_to_pointsEjP9hb_font_t10hb_array_tINS_15contour_point_tEE
_ZNK2OT4gvar16sanitize_shallowEP21hb_sanitize_context_t
_ZNK2OT4kern8sanitizeEP21hb_sanitize_context_t
_ZNK2OT4post13accelerator_t15find_glyph_nameEj
_ZNK2OT4post8sanitizeEP21hb_sanitize_context_t
_ZNK2OT4sbix8sanitizeEP21hb_sanitize_context_t
_ZNK2OT6Anchor10get_anchorEPNS_21hb_ot_apply_context_tEjPfS3_
_ZNK2OT6Device11get_x_deltaEP9hb_font_tRKNS_14VariationStoreE
_ZNK2OT6Device11get_y_deltaEP9hb_font_tRKNS_14VariationStoreE
_ZNK2OT6Lookup8sanitizeINS_17PosLookupSubTableEEEbP21hb_sanitize_context_t
_ZNK2OT6Lookup8sanitizeINS_19SubstLookupSubTableEEEbP21hb_sanitize_context_t
_ZNK2OT7ArrayOfINS_15MathValueRecordENS_7IntTypeItLj2EEEE16sanitize_shallowEP21hb_sanitize_context_t
_ZNK2OT7ArrayOfINS_21CmapSubtableLongGroupENS_7IntTypeIjLj4EEEE16sanitize_shallowEP21hb_sanitize_context_t
_ZNK2OT7ArrayOfINS_22FeatureVariationRecordENS_7IntTypeIjLj4EEEE8sanitizeIJPKNS_17FeatureVariationsEEEEbP21hb_sanitize_context_tDpOT_
_ZNK2OT7ArrayOfINS_7IntTypeItLj2EEES2_E16sanitize_shallowEP21hb_sanitize_context_t
_ZNK2OT7ArrayOfINS_8OffsetToINS_8CoverageENS_7IntTypeIjLj4EEELb1EEENS3_ItLj2EEEE8sanitizeIJPKNS_20MarkGlyphSetsFormat1EEEEbP21hb_sanitize_context_tDpOT_
_ZNK2OT7ArrayOfINS_8OffsetToINS_8CoverageENS_7IntTypeItLj2EEELb1EEES4_E8sanitizeIJPKNS_19ChainContextFormat3EEEEbP21hb_sanitize_context_tDpOT_
_ZNK2OT7ArrayOfINS_8OffsetToINS_8CoverageENS_7IntTypeItLj2EEELb1EEES4_E8sanitizeIJPKNS_30ReverseChainSingleSubstFormat1EEEEbP21hb_sanitize_context_tDpOT_
_ZNK2OT7ArrayOfINS_9HBGlyphIDENS_7IntTypeItLj2EEEE16sanitize_shallowEP21hb_sanitize_context_t
_ZNK2OT7Context8dispatchI21hb_sanitize_context_tJEEENT_8return_tEPS3_DpOT0_
_ZNK2OT7Context8dispatchINS_27hb_collect_glyphs_context_tEJEEENT_8return_tEPS3_DpOT0_
_ZNK2OT7DataMap7get_tagEv
_ZNK2OT7Feature8sanitizeEP21hb_sanitize_context_tPKNS_25Record_sanitize_closure_tE
_ZNK2OT8ClassDef16intersects_classEPK8hb_set_tj
_ZNK2OT8ClassDef9get_classEj
_ZNK2OT8Coverage10intersectsEPK8hb_set_t
_ZNK2OT8Coverage12get_coverageEj
_ZNK2OT8Coverage16collect_coverageI24hb_set_digest_combiner_tI27hb_set_digest_lowest_bits_tImLj4EES2_IS3_ImLj0EES3_ImLj9EEEEEEbPT_
_ZNK2OT8Coverage16collect_coverageI8hb_set_tEEbPT_
_ZNK2OT8Coverage6iter_t8__more__Ev
_ZNK2OT8Coverage8sanitizeEP21hb_sanitize_context_t
_ZNK2OT8GSUBGPOS10get_lookupEj
_ZNK2OT8GSUBGPOS10get_scriptEj
_ZNK2OT8GSUBGPOS8sanitizeINS_11SubstLookupEEEbP21hb_sanitize_context_t
_ZNK2OT8GSUBGPOS8sanitizeINS_9PosLookupEEEbP21hb_sanitize_context_t
_ZNK2OT8HVARVVAR8sanitizeEP21hb_sanitize_context_t
_ZNK2OT8Ligature5applyEPNS_21hb_ot_apply_context_tE
_ZNK2OT8OffsetToIN3AAT10ClassTableINS_7IntTypeItLj2EEEEES4_Lb0EE8sanitizeIJEEEbP21hb_sanitize_context_tPKvDpOT_
_ZNK2OT8OffsetToIN3AAT6LookupINS_7IntTypeItLj2EEEEENS3_IjLj4EEELb0EE8sanitizeIJEEEbP21hb_sanitize_context_tPKvDpOT_
_ZNK2OT8OffsetToINS_12AnchorMatrixENS_7IntTypeItLj2EEELb1EE8sanitizeIJjEEEbP21hb_sanitize_context_tPKvDpOT_
_ZNK2OT8OffsetToINS_12ChainRuleSetENS_7IntTypeItLj2EEELb1EE8sanitizeIJEEEbP21hb_sanitize_context_tPKvDpOT_
_ZNK2OT8OffsetToINS_12RecordListOfINS_6ScriptEEENS_7IntTypeItLj2EEELb1EE8sanitizeIJEEEbP21hb_sanitize_context_tPKvDpOT_
_ZNK2OT8OffsetToINS_13FeatureParamsENS_7IntTypeItLj2EEELb1EE8sanitizeIJjEEEbP21hb_sanitize_context_tPKvDpOT_
_ZNK2OT8OffsetToINS_13VarRegionListENS_7IntTypeIjLj4EEELb1EE8sanitizeIJEEEbP21hb_sanitize_context_tPKvDpOT_
_ZNK2OT8OffsetToINS_4AxisENS_7IntTypeItLj2EEELb1EE8sanitizeIJEEEbP21hb_sanitize_context_tPKvDpOT_
_ZNK2OT8OffsetToINS_6AnchorENS_7IntTypeItLj2EEELb1EE8sanitizeIJEEEbP21hb_sanitize_context_tPKvDpOT_
_ZNK2OT8OffsetToINS_6DeviceENS_7IntTypeItLj2EEELb1EE8sanitizeIJEEEbP21hb_sanitize_context_tPKvDpOT_
_ZNK2OT8OffsetToINS_6MinMaxENS_7IntTypeItLj2EEELb1EE8sanitizeIJEEEbP21hb_sanitize_context_tPKvDpOT_
_ZNK2OT8OffsetToINS_7ArrayOfIN3AAT6AnchorENS_7IntTypeIjLj4EEEEENS4_ItLj2EEELb0EE8sanitizeIJEEEbP21hb_sanitize_context_tPKvDpOT_
_ZNK2OT8OffsetToINS_7ArrayOfINS_7IntTypeIsLj2EEENS2_ItLj2EEEEES4_Lb1EE8sanitizeIJEEEbP21hb_sanitize_context_tPKvDpOT_
_ZNK2OT8OffsetToINS_7LangSysENS_7IntTypeItLj2EEELb1EE16sanitize_shallowEP21hb_sanitize_context_tPKv
_ZNK2OT8OffsetToINS_7RuleSetENS_7IntTypeItLj2EEELb1EE8sanitizeIJEEEbP21hb_sanitize_context_tPKvDpOT_
_ZNK2OT8OffsetToINS_8ClassDefENS_7IntTypeItLj2EEELb1EE8sanitizeIJEEEbP21hb_sanitize_context_tPKvDpOT_
_ZNK2OT8OffsetToINS_8CoverageENS_7IntTypeItLj2EEELb1EE8sanitizeIJEEEbP21hb_sanitize_context_tPKvDpOT_
_ZNK2OT8OffsetToINS_9BaseCoordENS_7IntTypeItLj2EEELb1EE8sanitizeIJEEEbP21hb_sanitize_context_tPKvDpOT_
_ZNK2OT8OffsetToINS_9MarkArrayENS_7IntTypeItLj2EEELb1EE8sanitizeIJEEEbP21hb_sanitize_context_tPKvDpOT_
_ZNK2OT9MarkArray5applyEPNS_21hb_ot_apply_context_tEjjRKNS_12AnchorMatrixEjj
_ZNK3AAT10StateTableINS_13ExtendedTypesENS_12Format1EntryILb1EE9EntryDataEE8sanitizeEP21hb_sanitize_context_tPj
_ZNK3AAT10StateTableINS_13ExtendedTypesENS_13LigatureEntryILb1EE9EntryDataEE8sanitizeEP21hb_sanitize_context_tPj
_ZNK3AAT10StateTableINS_13ExtendedTypesENS_17InsertionSubtableIS1_E9EntryDataEE8sanitizeEP21hb_sanitize_context_tPj
_ZNK3AAT10StateTableINS_13ExtendedTypesENS_18ContextualSubtableIS1_E9EntryDataEE8sanitizeEP21hb_sanitize_context_tPj
_ZNK3AAT10StateTableINS_13ExtendedTypesENS_19KerxSubTableFormat4INS_18KerxSubTableHeaderEE9EntryDataEE8sanitizeEP21hb_sanitize_context_tPj
_ZNK3AAT10StateTableINS_13ExtendedTypesEvE8sanitizeEP21hb_sanitize_context_tPj
_ZNK3AAT10StateTableINS_13ObsoleteTypesENS_17InsertionSubtableIS1_E9EntryDataEE8sanitizeEP21hb_sanitize_context_tPj
_ZNK3AAT10StateTableINS_13ObsoleteTypesENS_18ContextualSubtableIS1_E9EntryDataEE8sanitizeEP21hb_sanitize_context_tPj
_ZNK3AAT10StateTableINS_13ObsoleteTypesEvE8sanitizeEP21hb_sanitize_context_tPj
_ZNK3AAT11FeatureName16get_feature_typeEv
_ZNK3AAT11lcarFormat014get_lig_caretsEP9hb_font_t14hb_direction_tjjPjPiPKv
_ZNK3AAT12KerxSubTable8dispatchI21hb_sanitize_context_tJEEENT_8return_tEPS3_DpOT0_
_ZNK3AAT19KerxSubTableFormat6INS_18KerxSubTableHeaderEE11get_kerningEjjPNS_22hb_aat_apply_context_tE
_ZNK3AAT4ankr10get_anchorEjjj
_ZNK3AAT4ankr8sanitizeEP21hb_sanitize_context_t
_ZNK3AAT4feat8sanitizeEP21hb_sanitize_context_t
_ZNK3AAT4lcar8sanitizeEP21hb_sanitize_context_t
_ZNK3AAT4trak5applyEPNS_22hb_aat_apply_context_tE
_ZNK3AAT4trak8sanitizeEP21hb_sanitize_context_t
_ZNK3AAT6LookupIN2OT7IntTypeIjLj4EEEE8sanitizeEP21hb_sanitize_context_t
_ZNK3AAT6LookupIN2OT7IntTypeItLj2EEEE9get_valueEjj
_ZNK3AAT6LookupIN2OT9HBGlyphIDEE8sanitizeEP21hb_sanitize_context_t
_ZNK3AAT6LookupIN2OT9HBGlyphIDEE9get_valueEjj
_ZNK3AAT8mortmorxINS_13ExtendedTypesELj1836020344EE8sanitizeEP21hb_sanitize_context_t
_ZNK3AAT8mortmorxINS_13ObsoleteTypesELj1836020340EE8sanitizeEP21hb_sanitize_context_t
_ZNK3AAT9KerxTableIN2OT7KernAATEE5applyEPNS_22hb_aat_apply_context_tE
_ZNK3AAT9KerxTableIN2OT7KernAATEE8sanitizeEP21hb_sanitize_context_t
_ZNK3AAT9KerxTableINS_4kerxEE5applyEPNS_22hb_aat_apply_context_tE
_ZNK3AAT9KerxTableINS_4kerxEE8sanitizeEP21hb_sanitize_context_t
_ZNK3AAT9TrackData12get_trackingEPKvf
_ZNK3CFF11FDSelect3_4IN2OT7IntTypeIjLj4EEENS2_ItLj2EEEE8sanitizeEP21hb_sanitize_context_tj
_ZNK3CFF11FDSelect3_4IN2OT7IntTypeItLj2EEENS2_IhLj1EEEE8sanitizeEP21hb_sanitize_context_tj
_ZNK3CFF8CFFIndexIN2OT7IntTypeIjLj4EEEE8sanitizeEP21hb_sanitize_context_t
_ZNK3CFF8CFFIndexIN2OT7IntTypeIjLj4EEEE9offset_atEj
_ZNK3CFF8CFFIndexIN2OT7IntTypeItLj2EEEE8get_sizeEv
_ZNK3CFF8CFFIndexIN2OT7IntTypeItLj2EEEE8sanitizeEP21hb_sanitize_context_t
_ZNK3CFF8CFFIndexIN2OT7IntTypeItLj2EEEE9length_atEj
_ZNK3CFF8CFFIndexIN2OT7IntTypeItLj2EEEE9offset_atEj
_ZNK3CFF8CFFIndexIN2OT7IntTypeItLj2EEEEixEj
_ZNK8hb_set_t3getEj
_ZNK9hb_face_t14get_num_glyphsEv
_ZNK9hb_face_t15load_num_glyphsEv
_ZNK9hb_face_t9load_upemEv
_ZZNK2OT4glyf5Glyph11SimpleGlyph18get_contour_pointsERNS_22contour_point_vector_tEbENKUlRNS_15contour_point_tEfE0_clES6_f
_ZZNK2OT4glyf5Glyph11SimpleGlyph18get_contour_pointsERNS_22contour_point_vector_tEbENKUlRNS_15contour_point_tEfE_clES6_f
_ZZNK2OT4glyf5Glyph11SimpleGlyph18get_contour_pointsERNS_22contour_point_vector_tEbENUlRNS_15contour_point_tEfE0_4_FUNES6_f
_ZZNK2OT4glyf5Glyph11SimpleGlyph18get_contour_pointsERNS_22contour_point_vector_tEbENUlRNS_15contour_point_tEfE_4_FUNES6_f
_hb_CrapPool DATA
_hb_NullPool DATA
_hb_Null_AAT_Lookup DATA
_hb_Null_AAT_SettingName DATA
_hb_Null_OT_CmapSubtableLongGroup DATA
_hb_Null_OT_Index DATA
_hb_Null_OT_LangSys DATA
_hb_Null_OT_RangeRecord DATA
_hb_Null_hb_buffer_t DATA
_hb_Null_hb_face_t DATA
_hb_Null_hb_font_funcs_t DATA
_hb_Null_hb_font_t DATA
_hb_Null_hb_unicode_funcs_t DATA
_hb_fallback_shape
_hb_fallback_shaper_face_data_create
_hb_fallback_shaper_face_data_destroy
_hb_fallback_shaper_font_data_create
_hb_fallback_shaper_font_data_destroy
_hb_modified_combining_class DATA
_hb_options DATA
_hb_ot_complex_shaper_arabic DATA
_hb_ot_complex_shaper_default DATA
_hb_ot_complex_shaper_dumber DATA
_hb_ot_complex_shaper_hangul DATA
_hb_ot_complex_shaper_hebrew DATA
_hb_ot_complex_shaper_indic DATA
_hb_ot_complex_shaper_khmer DATA
_hb_ot_complex_shaper_myanmar DATA
_hb_ot_complex_shaper_myanmar_zawgyi DATA
_hb_ot_complex_shaper_thai DATA
_hb_ot_complex_shaper_use DATA
_hb_ot_shape
_hb_ot_shaper_face_data_create
_hb_ot_shaper_face_data_destroy
_hb_ot_shaper_font_data_create
_hb_ot_shaper_font_data_destroy
hb_aat_layout_feature_type_get_name_id
hb_aat_layout_feature_type_get_selector_infos
hb_aat_layout_get_feature_types
hb_aat_layout_has_positioning
hb_aat_layout_has_substitution
hb_aat_layout_has_tracking
hb_blob_copy_writable_or_fail
hb_blob_create
hb_blob_create_from_file
hb_blob_create_sub_blob
hb_blob_destroy
hb_blob_get_data
hb_blob_get_data_writable
hb_blob_get_empty
hb_blob_get_length
hb_blob_get_user_data
hb_blob_is_immutable
hb_blob_make_immutable
hb_blob_reference
hb_blob_set_user_data
hb_buffer_add
hb_buffer_add_codepoints
hb_buffer_add_latin1
hb_buffer_add_utf16
hb_buffer_add_utf32
hb_buffer_add_utf8
hb_buffer_allocation_successful
hb_buffer_append
hb_buffer_clear_contents
hb_buffer_create
hb_buffer_deserialize_glyphs
hb_buffer_destroy
hb_buffer_diff
hb_buffer_get_cluster_level
hb_buffer_get_content_type
hb_buffer_get_direction
hb_buffer_get_empty
hb_buffer_get_flags
hb_buffer_get_glyph_infos
hb_buffer_get_glyph_positions
hb_buffer_get_invisible_glyph
hb_buffer_get_language
hb_buffer_get_length
hb_buffer_get_replacement_codepoint
hb_buffer_get_script
hb_buffer_get_segment_properties
hb_buffer_get_unicode_funcs
hb_buffer_get_user_data
hb_buffer_guess_segment_properties
hb_buffer_normalize_glyphs
hb_buffer_pre_allocate
hb_buffer_reference
hb_buffer_reset
hb_buffer_reverse
hb_buffer_reverse_clusters
hb_buffer_reverse_range
hb_buffer_serialize_format_from_string
hb_buffer_serialize_format_to_string
hb_buffer_serialize_glyphs
hb_buffer_serialize_list_formats
hb_buffer_set_cluster_level
hb_buffer_set_content_type
hb_buffer_set_direction
hb_buffer_set_flags
hb_buffer_set_invisible_glyph
hb_buffer_set_language
hb_buffer_set_length
hb_buffer_set_message_func
hb_buffer_set_replacement_codepoint
hb_buffer_set_script
hb_buffer_set_segment_properties
hb_buffer_set_unicode_funcs
hb_buffer_set_user_data
hb_color_get_alpha
hb_color_get_blue
hb_color_get_green
hb_color_get_red
hb_direction_from_string
hb_direction_to_string
hb_face_builder_add_table
hb_face_builder_create
hb_face_collect_unicodes
hb_face_collect_variation_selectors
hb_face_collect_variation_unicodes
hb_face_count
hb_face_create
hb_face_create_for_tables
hb_face_destroy
hb_face_get_empty
hb_face_get_glyph_count
hb_face_get_index
hb_face_get_table_tags
hb_face_get_upem
hb_face_get_user_data
hb_face_is_immutable
hb_face_make_immutable
hb_face_reference
hb_face_reference_blob
hb_face_reference_table
hb_face_set_glyph_count
hb_face_set_index
hb_face_set_upem
hb_face_set_user_data
hb_feature_from_string
hb_feature_to_string
hb_font_add_glyph_origin_for_direction
hb_font_create
hb_font_create_sub_font
hb_font_destroy
hb_font_funcs_create
hb_font_funcs_destroy
hb_font_funcs_get_empty
hb_font_funcs_get_user_data
hb_font_funcs_is_immutable
hb_font_funcs_make_immutable
hb_font_funcs_reference
hb_font_funcs_set_font_h_extents_func
hb_font_funcs_set_font_v_extents_func
hb_font_funcs_set_glyph_contour_point_func
hb_font_funcs_set_glyph_extents_func
hb_font_funcs_set_glyph_from_name_func
hb_font_funcs_set_glyph_func
hb_font_funcs_set_glyph_h_advance_func
hb_font_funcs_set_glyph_h_advances_func
hb_font_funcs_set_glyph_h_kerning_func
hb_font_funcs_set_glyph_h_origin_func
hb_font_funcs_set_glyph_name_func
hb_font_funcs_set_glyph_v_advance_func
hb_font_funcs_set_glyph_v_advances_func
hb_font_funcs_set_glyph_v_kerning_func
hb_font_funcs_set_glyph_v_origin_func
hb_font_funcs_set_nominal_glyph_func
hb_font_funcs_set_nominal_glyphs_func
hb_font_funcs_set_user_data
hb_font_funcs_set_variation_glyph_func
hb_font_get_empty
hb_font_get_extents_for_direction
hb_font_get_face
hb_font_get_glyph
hb_font_get_glyph_advance_for_direction
hb_font_get_glyph_advances_for_direction
hb_font_get_glyph_contour_point
hb_font_get_glyph_contour_point_for_origin
hb_font_get_glyph_extents
hb_font_get_glyph_extents_for_origin
hb_font_get_glyph_from_name
hb_font_get_glyph_h_advance
hb_font_get_glyph_h_advances
hb_font_get_glyph_h_kerning
hb_font_get_glyph_h_origin
hb_font_get_glyph_kerning_for_direction
hb_font_get_glyph_name
hb_font_get_glyph_origin_for_direction
hb_font_get_glyph_v_advance
hb_font_get_glyph_v_advances
hb_font_get_glyph_v_kerning
hb_font_get_glyph_v_origin
hb_font_get_h_extents
hb_font_get_nominal_glyph
hb_font_get_nominal_glyphs
hb_font_get_parent
hb_font_get_ppem
hb_font_get_ptem
hb_font_get_scale
hb_font_get_user_data
hb_font_get_v_extents
hb_font_get_var_coords_normalized
hb_font_get_variation_glyph
hb_font_glyph_from_string
hb_font_glyph_to_string
hb_font_is_immutable
hb_font_make_immutable
hb_font_reference
hb_font_set_face
hb_font_set_funcs
hb_font_set_funcs_data
hb_font_set_parent
hb_font_set_ppem
hb_font_set_ptem
hb_font_set_scale
hb_font_set_user_data
hb_font_set_var_coords_design
hb_font_set_var_coords_normalized
hb_font_set_var_named_instance
hb_font_set_variations
hb_font_subtract_glyph_origin_for_direction
hb_ft_face_create
hb_ft_face_create_cached
hb_ft_face_create_referenced
hb_ft_font_changed
hb_ft_font_create
hb_ft_font_create_referenced
hb_ft_font_get_face
hb_ft_font_get_load_flags
hb_ft_font_lock_face
hb_ft_font_set_funcs
hb_ft_font_set_load_flags
hb_ft_font_unlock_face
hb_glib_blob_create
hb_glib_get_unicode_funcs
hb_glib_script_from_script
hb_glib_script_to_script
hb_glyph_info_get_glyph_flags
hb_language_from_string
hb_language_get_default
hb_language_to_string
hb_map_allocation_successful
hb_map_clear
hb_map_create
hb_map_del
hb_map_destroy
hb_map_get
hb_map_get_empty
hb_map_get_population
hb_map_get_user_data
hb_map_has
hb_map_is_empty
hb_map_reference
hb_map_set
hb_map_set_user_data
hb_ot_color_glyph_get_layers
hb_ot_color_glyph_reference_png
hb_ot_color_glyph_reference_svg
hb_ot_color_has_layers
hb_ot_color_has_palettes
hb_ot_color_has_png
hb_ot_color_has_svg
hb_ot_color_palette_color_get_name_id
hb_ot_color_palette_get_colors
hb_ot_color_palette_get_count
hb_ot_color_palette_get_flags
hb_ot_color_palette_get_name_id
hb_ot_font_set_funcs
hb_ot_layout_collect_features
hb_ot_layout_collect_lookups
hb_ot_layout_feature_get_characters
hb_ot_layout_feature_get_lookups
hb_ot_layout_feature_get_name_ids
hb_ot_layout_feature_with_variations_get_lookups
hb_ot_layout_get_attach_points
hb_ot_layout_get_baseline
hb_ot_layout_get_glyph_class
hb_ot_layout_get_glyphs_in_class
hb_ot_layout_get_ligature_carets
hb_ot_layout_get_size_params
hb_ot_layout_has_glyph_classes
hb_ot_layout_has_positioning
hb_ot_layout_has_substitution
hb_ot_layout_language_find_feature
hb_ot_layout_language_get_feature_indexes
hb_ot_layout_language_get_feature_tags
hb_ot_layout_language_get_required_feature
hb_ot_layout_language_get_required_feature_index
hb_ot_layout_lookup_collect_glyphs
hb_ot_layout_lookup_substitute_closure
hb_ot_layout_lookup_would_substitute
hb_ot_layout_lookups_substitute_closure
hb_ot_layout_script_find_language
hb_ot_layout_script_get_language_tags
hb_ot_layout_script_select_language
hb_ot_layout_table_choose_script
hb_ot_layout_table_find_feature_variations
hb_ot_layout_table_find_script
hb_ot_layout_table_get_feature_tags
hb_ot_layout_table_get_lookup_count
hb_ot_layout_table_get_script_tags
hb_ot_layout_table_select_script
hb_ot_math_get_constant
hb_ot_math_get_glyph_assembly
hb_ot_math_get_glyph_italics_correction
hb_ot_math_get_glyph_kerning
hb_ot_math_get_glyph_top_accent_attachment
hb_ot_math_get_glyph_variants
hb_ot_math_get_min_connector_overlap
hb_ot_math_has_data
hb_ot_math_is_glyph_extended_shape
hb_ot_meta_get_entry_tags
hb_ot_meta_reference_entry
hb_ot_metrics_get_position
hb_ot_metrics_get_variation
hb_ot_metrics_get_x_variation
hb_ot_metrics_get_y_variation
hb_ot_name_get_utf16
hb_ot_name_get_utf32
hb_ot_name_get_utf8
hb_ot_name_list_names
hb_ot_shape_glyphs_closure
hb_ot_shape_plan_collect_lookups
hb_ot_tag_from_language
hb_ot_tag_to_language
hb_ot_tag_to_script
hb_ot_tags_from_script
hb_ot_tags_from_script_and_language
hb_ot_tags_to_script_and_language
hb_ot_var_find_axis
hb_ot_var_find_axis_info
hb_ot_var_get_axes
hb_ot_var_get_axis_count
hb_ot_var_get_axis_infos
hb_ot_var_get_named_instance_count
hb_ot_var_has_data
hb_ot_var_named_instance_get_design_coords
hb_ot_var_named_instance_get_postscript_name_id
hb_ot_var_named_instance_get_subfamily_name_id
hb_ot_var_normalize_coords
hb_ot_var_normalize_variations
hb_script_from_iso15924_tag
hb_script_from_string
hb_script_get_horizontal_direction
hb_script_to_iso15924_tag
hb_segment_properties_equal
hb_segment_properties_hash
hb_set_add
hb_set_add_range
hb_set_allocation_successful
hb_set_clear
hb_set_create
hb_set_del
hb_set_del_range
hb_set_destroy
hb_set_get_empty
hb_set_get_max
hb_set_get_min
hb_set_get_population
hb_set_get_user_data
hb_set_has
hb_set_intersect
hb_set_invert
hb_set_is_empty
hb_set_is_equal
hb_set_is_subset
hb_set_next
hb_set_next_range
hb_set_previous
hb_set_previous_range
hb_set_reference
hb_set_set
hb_set_set_user_data
hb_set_subtract
hb_set_symmetric_difference
hb_set_union
hb_shape
hb_shape_full
hb_shape_list_shapers
hb_shape_plan_create
hb_shape_plan_create2
hb_shape_plan_create_cached
hb_shape_plan_create_cached2
hb_shape_plan_destroy
hb_shape_plan_execute
hb_shape_plan_get_empty
hb_shape_plan_get_shaper
hb_shape_plan_get_user_data
hb_shape_plan_reference
hb_shape_plan_set_user_data
hb_tag_from_string
hb_tag_to_string
hb_ucd_get_unicode_funcs
hb_unicode_combining_class
hb_unicode_compose
hb_unicode_decompose
hb_unicode_decompose_compatibility
hb_unicode_eastasian_width
hb_unicode_funcs_create
hb_unicode_funcs_destroy
hb_unicode_funcs_get_default
hb_unicode_funcs_get_empty
hb_unicode_funcs_get_parent
hb_unicode_funcs_get_user_data
hb_unicode_funcs_is_immutable
hb_unicode_funcs_make_immutable
hb_unicode_funcs_reference
hb_unicode_funcs_set_combining_class_func
hb_unicode_funcs_set_compose_func
hb_unicode_funcs_set_decompose_compatibility_func
hb_unicode_funcs_set_decompose_func
hb_unicode_funcs_set_eastasian_width_func
hb_unicode_funcs_set_general_category_func
hb_unicode_funcs_set_mirroring_func
hb_unicode_funcs_set_script_func
hb_unicode_funcs_set_user_data
hb_unicode_general_category
hb_unicode_mirroring
hb_unicode_script
hb_variation_from_string
hb_variation_to_string
hb_version
hb_version_atleast
hb_version_string
