;
; Definition file of libSoundTouch-1.dll
; Automatic generated by gendef
; written by Kai Tietz 2008
;
LIBRARY "libSoundTouch-1.dll"
EXPORTS
_Z17disableExtensionsj
_Z19detectCPUextensionsv
_Z6printfPKcz
_Z7hammingPfi
_Z8MAFilterPfPKfiii
_ZN10soundtouch10PeakFinder10detectPeakEPKfii
_ZN10soundtouch10PeakFinderC1Ev
_ZN10soundtouch10PeakFinderC2Ev
_ZN10soundtouch10SoundTouch10putSamplesEPKfj
_ZN10soundtouch10SoundTouch10setSettingEii
_ZN10soundtouch10SoundTouch11setChannelsEj
_ZN10soundtouch10SoundTouch12getVersionIdEv
_ZN10soundtouch10SoundTouch13setRateChangeEd
_ZN10soundtouch10SoundTouch13setSampleRateEj
_ZN10soundtouch10SoundTouch14receiveSamplesEPfj
_ZN10soundtouch10SoundTouch14receiveSamplesEj
_ZN10soundtouch10SoundTouch14setTempoChangeEd
_ZN10soundtouch10SoundTouch15setPitchOctavesEd
_ZN10soundtouch10SoundTouch16getVersionStringEv
_ZN10soundtouch10SoundTouch17setPitchSemiTonesEd
_ZN10soundtouch10SoundTouch17setPitchSemiTonesEi
_ZN10soundtouch10SoundTouch25calcEffectiveRateAndTempoEv
_ZN10soundtouch10SoundTouch25getInputOutputSampleRatioEv
_ZN10soundtouch10SoundTouch5clearEv
_ZN10soundtouch10SoundTouch5flushEv
_ZN10soundtouch10SoundTouch7setRateEd
_ZN10soundtouch10SoundTouch8setPitchEd
_ZN10soundtouch10SoundTouch8setTempoEd
_ZN10soundtouch10SoundTouchC1Ev
_ZN10soundtouch10SoundTouchC2Ev
_ZN10soundtouch10SoundTouchD0Ev
_ZN10soundtouch10SoundTouchD1Ev
_ZN10soundtouch10SoundTouchD2Ev
_ZN10soundtouch11IIR2_filter6updateEf
_ZN10soundtouch11IIR2_filterC1EPKd
_ZN10soundtouch11IIR2_filterC2EPKd
_ZN10soundtouch13FIFOProcessor14receiveSamplesEPfj
_ZN10soundtouch13FIFOProcessor14receiveSamplesEj
_ZN10soundtouch13FIFOProcessor21adjustAmountOfSamplesEj
_ZN10soundtouch13FIFOProcessor8ptrBeginEv
_ZN10soundtouch14RateTransposer10putSamplesEPKfj
_ZN10soundtouch14RateTransposer11getAAFilterEv
_ZN10soundtouch14RateTransposer11setChannelsEi
_ZN10soundtouch14RateTransposer14enableAAFilterEb
_ZN10soundtouch14RateTransposer14processSamplesEPKfj
_ZN10soundtouch14RateTransposer5clearEv
_ZN10soundtouch14RateTransposer7setRateEd
_ZN10soundtouch14RateTransposerC1Ev
_ZN10soundtouch14RateTransposerC2Ev
_ZN10soundtouch14RateTransposerD0Ev
_ZN10soundtouch14RateTransposerD1Ev
_ZN10soundtouch14RateTransposerD2Ev
_ZN10soundtouch14TransposerBase11newInstanceEv
_ZN10soundtouch14TransposerBase11setChannelsEi
_ZN10soundtouch14TransposerBase12setAlgorithmENS0_9ALGORITHME
_ZN10soundtouch14TransposerBase7setRateEd
_ZN10soundtouch14TransposerBase9algorithmE DATA
_ZN10soundtouch14TransposerBase9transposeERNS_16FIFOSampleBufferES2_
_ZN10soundtouch14TransposerBaseC1Ev
_ZN10soundtouch14TransposerBaseC2Ev
_ZN10soundtouch14TransposerBaseD0Ev
_ZN10soundtouch14TransposerBaseD1Ev
_ZN10soundtouch14TransposerBaseD2Ev
_ZN10soundtouch16FIFOSampleBuffer10putSamplesEPKfj
_ZN10soundtouch16FIFOSampleBuffer10putSamplesEj
_ZN10soundtouch16FIFOSampleBuffer11setChannelsEi
_ZN10soundtouch16FIFOSampleBuffer14ensureCapacityEj
_ZN10soundtouch16FIFOSampleBuffer14receiveSamplesEPfj
_ZN10soundtouch16FIFOSampleBuffer14receiveSamplesEj
_ZN10soundtouch16FIFOSampleBuffer21adjustAmountOfSamplesEj
_ZN10soundtouch16FIFOSampleBuffer5clearEv
_ZN10soundtouch16FIFOSampleBuffer6ptrEndEj
_ZN10soundtouch16FIFOSampleBuffer6rewindEv
_ZN10soundtouch16FIFOSampleBuffer8ptrBeginEv
_ZN10soundtouch16FIFOSampleBufferC1Ei
_ZN10soundtouch16FIFOSampleBufferC2Ei
_ZN10soundtouch16FIFOSampleBufferD0Ev
_ZN10soundtouch16FIFOSampleBufferD1Ev
_ZN10soundtouch16FIFOSampleBufferD2Ev
_ZN10soundtouch16InterpolateCubic13transposeMonoEPfPKfRi
_ZN10soundtouch16InterpolateCubic14resetRegistersEv
_ZN10soundtouch16InterpolateCubic14transposeMultiEPfPKfRi
_ZN10soundtouch16InterpolateCubic15transposeStereoEPfPKfRi
_ZN10soundtouch16InterpolateCubicC1Ev
_ZN10soundtouch16InterpolateCubicC2Ev
_ZN10soundtouch16InterpolateCubicD0Ev
_ZN10soundtouch16InterpolateCubicD1Ev
_ZN10soundtouch18InterpolateShannon13transposeMonoEPfPKfRi
_ZN10soundtouch18InterpolateShannon14resetRegistersEv
_ZN10soundtouch18InterpolateShannon14transposeMultiEPfPKfRi
_ZN10soundtouch18InterpolateShannon15transposeStereoEPfPKfRi
_ZN10soundtouch18InterpolateShannonC1Ev
_ZN10soundtouch18InterpolateShannonC2Ev
_ZN10soundtouch18InterpolateShannonD0Ev
_ZN10soundtouch18InterpolateShannonD1Ev
_ZN10soundtouch22InterpolateLinearFloat13transposeMonoEPfPKfRi
_ZN10soundtouch22InterpolateLinearFloat14resetRegistersEv
_ZN10soundtouch22InterpolateLinearFloat14transposeMultiEPfPKfRi
_ZN10soundtouch22InterpolateLinearFloat15transposeStereoEPfPKfRi
_ZN10soundtouch22InterpolateLinearFloatC1Ev
_ZN10soundtouch22InterpolateLinearFloatC2Ev
_ZN10soundtouch22InterpolateLinearFloatD0Ev
_ZN10soundtouch22InterpolateLinearFloatD1Ev
_ZN10soundtouch24InterpolateLinearInteger13transposeMonoEPfPKfRi
_ZN10soundtouch24InterpolateLinearInteger14resetRegistersEv
_ZN10soundtouch24InterpolateLinearInteger14transposeMultiEPfPKfRi
_ZN10soundtouch24InterpolateLinearInteger15transposeStereoEPfPKfRi
_ZN10soundtouch24InterpolateLinearInteger7setRateEd
_ZN10soundtouch24InterpolateLinearIntegerC1Ev
_ZN10soundtouch24InterpolateLinearIntegerC2Ev
_ZN10soundtouch24InterpolateLinearIntegerD0Ev
_ZN10soundtouch24InterpolateLinearIntegerD1Ev
_ZN10soundtouch8AAFilter13setCutoffFreqEd
_ZN10soundtouch8AAFilter15calculateCoeffsEv
_ZN10soundtouch8AAFilter9setLengthEj
_ZN10soundtouch8AAFilterC1Ej
_ZN10soundtouch8AAFilterC2Ej
_ZN10soundtouch8AAFilterD1Ev
_ZN10soundtouch8AAFilterD2Ev
_ZN10soundtouch9BPMDetect10removeBiasEv
_ZN10soundtouch9BPMDetect11updateXCorrEi
_ZN10soundtouch9BPMDetect12inputSamplesEPKfi
_ZN10soundtouch9BPMDetect13updateBeatPosEi
_ZN10soundtouch9BPMDetect6getBpmEv
_ZN10soundtouch9BPMDetect8decimateEPfPKfi
_ZN10soundtouch9BPMDetect8getBeatsEPfS1_i
_ZN10soundtouch9BPMDetectC1Eii
_ZN10soundtouch9BPMDetectC2Eii
_ZN10soundtouch9BPMDetectD0Ev
_ZN10soundtouch9BPMDetectD1Ev
_ZN10soundtouch9BPMDetectD2Ev
_ZN10soundtouch9FIRFilter11newInstanceEv
_ZN10soundtouch9FIRFilter15setCoefficientsEPKfjj
_ZN10soundtouch9FIRFilter19evaluateFilterMultiEPfPKfjj
_ZN10soundtouch9FIRFilter8evaluateEPfPKfjj
_ZN10soundtouch9FIRFilterC1Ev
_ZN10soundtouch9FIRFilterC2Ev
_ZN10soundtouch9FIRFilterD0Ev
_ZN10soundtouch9FIRFilterD1Ev
_ZN10soundtouch9FIRFilterD2Ev
_ZN10soundtouch9FIRFilternwEy
_ZN10soundtouch9TDStretch10clearInputEv
_ZN10soundtouch9TDStretch10putSamplesEPKfj
_ZN10soundtouch9TDStretch11newInstanceEv
_ZN10soundtouch9TDStretch11setChannelsEi
_ZN10soundtouch9TDStretch13calcCrossCorrEPKfS2_Rd
_ZN10soundtouch9TDStretch13setParametersEiiii
_ZN10soundtouch9TDStretch14clearMidBufferEv
_ZN10soundtouch9TDStretch14processSamplesEv
_ZN10soundtouch9TDStretch15adaptNormalizerEv
_ZN10soundtouch9TDStretch15enableQuickSeekEb
_ZN10soundtouch9TDStretch17calcSeqParametersEv
_ZN10soundtouch9TDStretch19clearCrossCorrStateEv
_ZN10soundtouch9TDStretch22acceptNewOverlapLengthEi
_ZN10soundtouch9TDStretch22calculateOverlapLengthEi
_ZN10soundtouch9TDStretch23calcCrossCorrAccumulateEPKfS2_Rd
_ZN10soundtouch9TDStretch23seekBestOverlapPositionEPKf
_ZN10soundtouch9TDStretch27seekBestOverlapPositionFullEPKf
_ZN10soundtouch9TDStretch28seekBestOverlapPositionQuickEPKf
_ZN10soundtouch9TDStretch5clearEv
_ZN10soundtouch9TDStretch8setTempoEd
_ZN10soundtouch9TDStretchC1Ev
_ZN10soundtouch9TDStretchC2Ev
_ZN10soundtouch9TDStretchD0Ev
_ZN10soundtouch9TDStretchD1Ev
_ZN10soundtouch9TDStretchD2Ev
_ZN10soundtouch9TDStretchnwEy
_ZNK10soundtouch10PeakFinder10findGroundEPKfii
_ZNK10soundtouch10PeakFinder13getPeakCenterEPKfi
_ZNK10soundtouch10PeakFinder14calcMassCenterEPKfii
_ZNK10soundtouch10PeakFinder17findCrossingLevelEPKffii
_ZNK10soundtouch10PeakFinder7findTopEPKfi
_ZNK10soundtouch10SoundTouch10getSettingEi
_ZNK10soundtouch10SoundTouch21numUnprocessedSamplesEv
_ZNK10soundtouch13FIFOProcessor10numSamplesEv
_ZNK10soundtouch13FIFOProcessor7isEmptyEv
_ZNK10soundtouch14RateTransposer10getLatencyEv
_ZNK10soundtouch14RateTransposer17isAAFilterEnabledEv
_ZNK10soundtouch14RateTransposer7isEmptyEv
_ZNK10soundtouch16FIFOSampleBuffer10numSamplesEv
_ZNK10soundtouch16FIFOSampleBuffer11getCapacityEv
_ZNK10soundtouch16FIFOSampleBuffer7isEmptyEv
_ZNK10soundtouch8AAFilter8evaluateEPfPKfjj
_ZNK10soundtouch8AAFilter8evaluateERNS_16FIFOSampleBufferES2_
_ZNK10soundtouch8AAFilter9getLengthEv
_ZNK10soundtouch9FIRFilter18evaluateFilterMonoEPfPKfj
_ZNK10soundtouch9FIRFilter20evaluateFilterStereoEPfPKfj
_ZNK10soundtouch9FIRFilter9getLengthEv
_ZNK10soundtouch9TDStretch11overlapMonoEPfPKf
_ZNK10soundtouch9TDStretch12overlapMultiEPfPKf
_ZNK10soundtouch9TDStretch13getParametersEPiS1_S1_S1_
_ZNK10soundtouch9TDStretch13overlapStereoEPfPKf
_ZNK10soundtouch9TDStretch18isQuickSeekEnabledEv
_ZNSt6vectorIN10soundtouch4BEATESaIS1_EE17_M_realloc_insertIJRKS1_EEEvN9__gnu_cxx17__normal_iteratorIPS1_S3_EEDpOT_
_ZTIN10soundtouch10SoundTouchE DATA
_ZTIN10soundtouch13FIFOProcessorE DATA
_ZTIN10soundtouch14FIFOSamplePipeE DATA
_ZTIN10soundtouch14RateTransposerE DATA
_ZTIN10soundtouch14TransposerBaseE DATA
_ZTIN10soundtouch16FIFOSampleBufferE DATA
_ZTIN10soundtouch16InterpolateCubicE DATA
_ZTIN10soundtouch18InterpolateShannonE DATA
_ZTIN10soundtouch22InterpolateLinearFloatE DATA
_ZTIN10soundtouch24InterpolateLinearIntegerE DATA
_ZTIN10soundtouch9BPMDetectE DATA
_ZTIN10soundtouch9FIRFilterE DATA
_ZTIN10soundtouch9TDStretchE DATA
_ZTISt13runtime_error DATA
_ZTISt9exception DATA
_ZTSN10soundtouch10SoundTouchE DATA
_ZTSN10soundtouch13FIFOProcessorE DATA
_ZTSN10soundtouch14FIFOSamplePipeE DATA
_ZTSN10soundtouch14RateTransposerE DATA
_ZTSN10soundtouch14TransposerBaseE DATA
_ZTSN10soundtouch16FIFOSampleBufferE DATA
_ZTSN10soundtouch16InterpolateCubicE DATA
_ZTSN10soundtouch18InterpolateShannonE DATA
_ZTSN10soundtouch22InterpolateLinearFloatE DATA
_ZTSN10soundtouch24InterpolateLinearIntegerE DATA
_ZTSN10soundtouch9BPMDetectE DATA
_ZTSN10soundtouch9FIRFilterE DATA
_ZTSN10soundtouch9TDStretchE DATA
_ZTSSt13runtime_error DATA
_ZTSSt9exception DATA
_ZTVN10soundtouch10SoundTouchE DATA
_ZTVN10soundtouch14RateTransposerE DATA
_ZTVN10soundtouch14TransposerBaseE DATA
_ZTVN10soundtouch16FIFOSampleBufferE DATA
_ZTVN10soundtouch16InterpolateCubicE DATA
_ZTVN10soundtouch18InterpolateShannonE DATA
_ZTVN10soundtouch22InterpolateLinearFloatE DATA
_ZTVN10soundtouch24InterpolateLinearIntegerE DATA
_ZTVN10soundtouch9BPMDetectE DATA
_ZTVN10soundtouch9FIRFilterE DATA
_ZTVN10soundtouch9TDStretchE DATA
soundtouch_ac_test
