;
; Definition file of libsrt.dll
; Automatic generated by gendef
; written by Kai Tietz 2008
;
LIBRARY "libsrt.dll"
EXPORTS
SysStrError
_ZN11srt_logging13LogDispatcher11SendLogLineEPKciRKNSt7__cxx1112basic_stringIcSt11char_traitsIcESaIcEEESA_
_ZN11srt_logging13LogDispatcher12CheckEnabledEv
_ZN11srt_logging13LogDispatcher19CreateLogLinePrefixERNSt7__cxx1119basic_ostringstreamIcSt11char_traitsIcESaIcEEE
_ZN11srt_logging13LogDispatcherclEv
_ZN13CUDTException5clearEv
_ZN13CUDTExceptionC1E9CodeMajor9CodeMinori
_ZN13CUDTExceptionC2E9CodeMajor9CodeMinori
_ZN3UDT10epoll_waitEiPSt3setIiSt4lessIiESaIiEES5_xPS0_IyS1_IyESaIyEES9_
_ZN3UDT10getsockoptEii11SRT_SOCKOPTPvPi
_ZN3UDT10setsockoptEii11SRT_SOCKOPTPKvi
_ZN3UDT11epoll_uwaitEiP19SRT_EPOLL_EVENT_STRix
_ZN3UDT11epoll_wait2EiPiS0_S0_S0_xPyS0_S1_S0_
_ZN3UDT11getpeernameEiP8sockaddrPi
_ZN3UDT11getsocknameEiP8sockaddrPi
_ZN3UDT12INVALID_SOCKE DATA
_ZN3UDT12epoll_createEv
_ZN3UDT12getlasterrorEv
_ZN3UDT12getsockstateEi
_ZN3UDT13epoll_releaseEi
_ZN3UDT15epoll_add_ssockEiyPKi
_ZN3UDT15epoll_add_usockEiiPKi
_ZN3UDT17getlasterror_codeEv
_ZN3UDT17getlasterror_descEv
_ZN3UDT18epoll_remove_ssockEiy
_ZN3UDT18epoll_remove_usockEii
_ZN3UDT18epoll_update_ssockEiyPKi
_ZN3UDT18epoll_update_usockEiiPKi
_ZN3UDT4bindEiPK8sockaddri
_ZN3UDT4recvEiPcii
_ZN3UDT4sendEiPKcii
_ZN3UDT5ERRORE DATA
_ZN3UDT5bind2Eiy
_ZN3UDT5closeEi
_ZN3UDT6acceptEiP8sockaddrPi
_ZN3UDT6bstatsEiP12CBytePerfMonb
_ZN3UDT6listenEii
_ZN3UDT6selectEiPSt3setIiSt4lessIiESaIiEES5_S5_PK7timeval
_ZN3UDT7cleanupEv
_ZN3UDT7connectEiPK8sockaddri
_ZN3UDT7recvmsgEiPci
_ZN3UDT7sendmsgEiPKciibx
_ZN3UDT7startupEv
_ZN3UDT8recvfileEiRSt13basic_fstreamIcSt11char_traitsIcEERxxi
_ZN3UDT8selectExERKSt6vectorIiSaIiEEPS2_S5_S5_x
_ZN3UDT8sendfileEiRSt13basic_fstreamIcSt11char_traitsIcEERxxi
_ZN3UDT9recvfile2EiPKcPxxi
_ZN3UDT9sendfile2EiPKcPxxi
_ZN3srt10resetlogfaEPKiy
_ZN3srt10resetlogfaESt3setIN11srt_logging5LogFAESt4lessIS2_ESaIS2_EE
_ZN3srt11getstreamidB5cxx11Ei
_ZN3srt11setlogflagsEi
_ZN3srt11setloglevelEN11srt_logging8LogLevel4typeE
_ZN3srt11setstreamidEiRKNSt7__cxx1112basic_stringIcSt11char_traitsIcESaIcEEE
_ZN3srt12setlogstreamERSo
_ZN3srt13setloghandlerEPvPFvS0_iPKciS2_S2_E
_ZN3srt8addlogfaEN11srt_logging5LogFAE
_ZN3srt8dellogfaEN11srt_logging5LogFAE
_ZNK13CUDTException12getErrorCodeEv
_ZNK13CUDTException14getErrorStringB5cxx11Ev
_ZNK13CUDTException15getErrorMessageEv
_ZNK13CUDTException8getErrnoEv
_ZTI13CUDTException DATA
_ZTV13CUDTException DATA
srt_accept
srt_accept_bond
srt_addlogfa
srt_bind
srt_bind_acquire
srt_bistats
srt_bstats
srt_cleanup
srt_clearlasterror
srt_close
srt_connect
srt_connect_bind
srt_connect_callback
srt_connect_debug
srt_connection_time
srt_create_socket
srt_dellogfa
srt_epoll_add_ssock
srt_epoll_add_usock
srt_epoll_clear_usocks
srt_epoll_create
srt_epoll_release
srt_epoll_remove_ssock
srt_epoll_remove_usock
srt_epoll_set
srt_epoll_update_ssock
srt_epoll_update_usock
srt_epoll_uwait
srt_epoll_wait
srt_getlasterror
srt_getlasterror_str
srt_getpeername
srt_getrejectreason
srt_getsndbuffer
srt_getsockflag
srt_getsockname
srt_getsockopt
srt_getsockstate
srt_getversion
srt_listen
srt_listen_callback
srt_logger_config DATA
srt_msgctrl_default DATA
srt_msgctrl_init
srt_recv
srt_recvfile
srt_recvmsg
srt_recvmsg2
srt_rejectreason_msg DATA
srt_rendezvous
srt_resetlogfa
srt_send
srt_sendfile
srt_sendmsg
srt_sendmsg2
srt_setlogflags
srt_setloghandler
srt_setloglevel
srt_setrejectreason
srt_setsockflag
srt_setsockopt
srt_socket
srt_startup
srt_strerror
srt_time_now
