;
; Definition file of libtag.dll
; Automatic generated by gendef
; written by Kai Tietz 2008
;
LIBRARY "libtag.dll"
EXPORTS
_ZN6TagLib10ByteVector10fromBase64ERKS0_
_ZN6TagLib10ByteVector11fromCStringEPKcj
_ZN6TagLib10ByteVector12fromLongLongExb
_ZN6TagLib10ByteVector13fromFloat32BEEf
_ZN6TagLib10ByteVector13fromFloat32LEEf
_ZN6TagLib10ByteVector13fromFloat64BEEd
_ZN6TagLib10ByteVector13fromFloat64LEEd
_ZN6TagLib10ByteVector3endEv
_ZN6TagLib10ByteVector4dataEv
_ZN6TagLib10ByteVector4nullE DATA
_ZN6TagLib10ByteVector4rendEv
_ZN6TagLib10ByteVector4swapERS0_
_ZN6TagLib10ByteVector5beginEv
_ZN6TagLib10ByteVector5clearEv
_ZN6TagLib10ByteVector6appendERKS0_
_ZN6TagLib10ByteVector6appendEc
_ZN6TagLib10ByteVector6detachEv
_ZN6TagLib10ByteVector6rbeginEv
_ZN6TagLib10ByteVector6resizeEjc
_ZN6TagLib10ByteVector7replaceERKS0_S2_
_ZN6TagLib10ByteVector7replaceEcc
_ZN6TagLib10ByteVector7setDataEPKc
_ZN6TagLib10ByteVector7setDataEPKcj
_ZN6TagLib10ByteVector8fromUIntEjb
_ZN6TagLib10ByteVector9fromShortEsb
_ZN6TagLib10ByteVectorC1EPKc
_ZN6TagLib10ByteVectorC1EPKcj
_ZN6TagLib10ByteVectorC1ERKS0_
_ZN6TagLib10ByteVectorC1ERKS0_jj
_ZN6TagLib10ByteVectorC1Ec
_ZN6TagLib10ByteVectorC1Ejc
_ZN6TagLib10ByteVectorC1Ev
_ZN6TagLib10ByteVectorC2EPKc
_ZN6TagLib10ByteVectorC2EPKcj
_ZN6TagLib10ByteVectorC2ERKS0_
_ZN6TagLib10ByteVectorC2ERKS0_jj
_ZN6TagLib10ByteVectorC2Ec
_ZN6TagLib10ByteVectorC2Ejc
_ZN6TagLib10ByteVectorC2Ev
_ZN6TagLib10ByteVectorD0Ev
_ZN6TagLib10ByteVectorD1Ev
_ZN6TagLib10ByteVectorD2Ev
_ZN6TagLib10ByteVectoraSEPKc
_ZN6TagLib10ByteVectoraSERKS0_
_ZN6TagLib10ByteVectoraSEc
_ZN6TagLib10ByteVectorixEi
_ZN6TagLib10FileStream10bufferSizeEv
_ZN6TagLib10FileStream10writeBlockERKNS_10ByteVectorE
_ZN6TagLib10FileStream11removeBlockEmm
_ZN6TagLib10FileStream4seekElNS_8IOStream8PositionE
_ZN6TagLib10FileStream5clearEv
_ZN6TagLib10FileStream6insertERKNS_10ByteVectorEmm
_ZN6TagLib10FileStream6lengthEv
_ZN6TagLib10FileStream8truncateEl
_ZN6TagLib10FileStream9readBlockEm
_ZN6TagLib10FileStreamC1ENS_8FileNameEb
_ZN6TagLib10FileStreamC2ENS_8FileNameEb
_ZN6TagLib10FileStreamD0Ev
_ZN6TagLib10FileStreamD1Ev
_ZN6TagLib10FileStreamD2Ev
_ZN6TagLib10RefCounter3refEv
_ZN6TagLib10RefCounter5derefEv
_ZN6TagLib10RefCounterC1Ev
_ZN6TagLib10RefCounterC2Ev
_ZN6TagLib10RefCounterD0Ev
_ZN6TagLib10RefCounterD1Ev
_ZN6TagLib10RefCounterD2Ev
_ZN6TagLib10StringList5splitERKNS_6StringES3_
_ZN6TagLib10StringList6appendERKNS_6StringE
_ZN6TagLib10StringList6appendERKS0_
_ZN6TagLib10StringListC1ERKNS_14ByteVectorListENS_6String4TypeE
_ZN6TagLib10StringListC1ERKNS_6StringE
_ZN6TagLib10StringListC1ERKS0_
_ZN6TagLib10StringListC1Ev
_ZN6TagLib10StringListC2ERKNS_14ByteVectorListENS_6String4TypeE
_ZN6TagLib10StringListC2ERKNS_6StringE
_ZN6TagLib10StringListC2ERKS0_
_ZN6TagLib10StringListC2Ev
_ZN6TagLib10StringListD0Ev
_ZN6TagLib10StringListD1Ev
_ZN6TagLib10StringListD2Ev
_ZN6TagLib11PropertyMap11removeEmptyEv
_ZN6TagLib11PropertyMap15unsupportedDataEv
_ZN6TagLib11PropertyMap4findERKNS_6StringE
_ZN6TagLib11PropertyMap5eraseERKNS_6StringE
_ZN6TagLib11PropertyMap5eraseERKS0_
_ZN6TagLib11PropertyMap5mergeERKS0_
_ZN6TagLib11PropertyMap6insertERKNS_6StringERKNS_10StringListE
_ZN6TagLib11PropertyMap7replaceERKNS_6StringERKNS_10StringListE
_ZN6TagLib11PropertyMapC1ERKNS_3MapINS_6StringENS_10StringListEEE
_ZN6TagLib11PropertyMapC1ERKS0_
_ZN6TagLib11PropertyMapC1Ev
_ZN6TagLib11PropertyMapC2ERKNS_3MapINS_6StringENS_10StringListEEE
_ZN6TagLib11PropertyMapC2ERKS0_
_ZN6TagLib11PropertyMapC2Ev
_ZN6TagLib11PropertyMapD0Ev
_ZN6TagLib11PropertyMapD1Ev
_ZN6TagLib11PropertyMapD2Ev
_ZN6TagLib11PropertyMapixERKNS_6StringE
_ZN6TagLib13DebugListenerC1Ev
_ZN6TagLib13DebugListenerC2Ev
_ZN6TagLib13DebugListenerD0Ev
_ZN6TagLib13DebugListenerD1Ev
_ZN6TagLib13DebugListenerD2Ev
_ZN6TagLib14ByteVectorList5splitERKNS_10ByteVectorES3_i
_ZN6TagLib14ByteVectorList5splitERKNS_10ByteVectorES3_ii
_ZN6TagLib14ByteVectorListC1ERKS0_
_ZN6TagLib14ByteVectorListC1Ev
_ZN6TagLib14ByteVectorListC2ERKS0_
_ZN6TagLib14ByteVectorListC2Ev
_ZN6TagLib14ByteVectorListD0Ev
_ZN6TagLib14ByteVectorListD1Ev
_ZN6TagLib14ByteVectorListD2Ev
_ZN6TagLib15AudioPropertiesC1ENS0_9ReadStyleE
_ZN6TagLib15AudioPropertiesC2ENS0_9ReadStyleE
_ZN6TagLib15AudioPropertiesD0Ev
_ZN6TagLib15AudioPropertiesD1Ev
_ZN6TagLib15AudioPropertiesD2Ev
_ZN6TagLib16ByteVectorStream10writeBlockERKNS_10ByteVectorE
_ZN6TagLib16ByteVectorStream11removeBlockEmm
_ZN6TagLib16ByteVectorStream4dataEv
_ZN6TagLib16ByteVectorStream4seekElNS_8IOStream8PositionE
_ZN6TagLib16ByteVectorStream5clearEv
_ZN6TagLib16ByteVectorStream6insertERKNS_10ByteVectorEmm
_ZN6TagLib16ByteVectorStream6lengthEv
_ZN6TagLib16ByteVectorStream8truncateEl
_ZN6TagLib16ByteVectorStream9readBlockEm
_ZN6TagLib16ByteVectorStreamC1ERKNS_10ByteVectorE
_ZN6TagLib16ByteVectorStreamC2ERKNS_10ByteVectorE
_ZN6TagLib16ByteVectorStreamD0Ev
_ZN6TagLib16ByteVectorStreamD1Ev
_ZN6TagLib16ByteVectorStreamD2Ev
_ZN6TagLib16setDebugListenerEPNS_13DebugListenerE
_ZN6TagLib2IT10Properties10setSpecialEt
_ZN6TagLib2IT10Properties10setVersionEt
_ZN6TagLib2IT10Properties11setBpmSpeedEh
_ZN6TagLib2IT10Properties11setChannelsEi
_ZN6TagLib2IT10Properties12setMixVolumeEh
_ZN6TagLib2IT10Properties14setSampleCountEt
_ZN6TagLib2IT10Properties15setGlobalVolumeEh
_ZN6TagLib2IT10Properties15setPatternCountEt
_ZN6TagLib2IT10Properties18setInstrumentCountEt
_ZN6TagLib2IT10Properties18setPitchWheelDepthEh
_ZN6TagLib2IT10Properties19setLengthInPatternsEt
_ZN6TagLib2IT10Properties20setCompatibleVersionEt
_ZN6TagLib2IT10Properties20setPanningSeparationEh
_ZN6TagLib2IT10Properties8setFlagsEt
_ZN6TagLib2IT10Properties8setTempoEh
_ZN6TagLib2IT10PropertiesC1ENS_15AudioProperties9ReadStyleE
_ZN6TagLib2IT10PropertiesC2ENS_15AudioProperties9ReadStyleE
_ZN6TagLib2IT10PropertiesD0Ev
_ZN6TagLib2IT10PropertiesD1Ev
_ZN6TagLib2IT10PropertiesD2Ev
_ZN6TagLib2IT4File13setPropertiesERKNS_11PropertyMapE
_ZN6TagLib2IT4File4readEb
_ZN6TagLib2IT4File4saveEv
_ZN6TagLib2IT4FileC1ENS_8FileNameEbNS_15AudioProperties9ReadStyleE
_ZN6TagLib2IT4FileC1EPNS_8IOStreamEbNS_15AudioProperties9ReadStyleE
_ZN6TagLib2IT4FileC2ENS_8FileNameEbNS_15AudioProperties9ReadStyleE
_ZN6TagLib2IT4FileC2EPNS_8IOStreamEbNS_15AudioProperties9ReadStyleE
_ZN6TagLib2IT4FileD0Ev
_ZN6TagLib2IT4FileD1Ev
_ZN6TagLib2IT4FileD2Ev
_ZN6TagLib2XM10Properties10setVersionEt
_ZN6TagLib2XM10Properties11setBpmSpeedEt
_ZN6TagLib2XM10Properties11setChannelsEi
_ZN6TagLib2XM10Properties14setSampleCountEj
_ZN6TagLib2XM10Properties15setPatternCountEt
_ZN6TagLib2XM10Properties18setInstrumentCountEt
_ZN6TagLib2XM10Properties18setRestartPositionEt
_ZN6TagLib2XM10Properties19setLengthInPatternsEt
_ZN6TagLib2XM10Properties8setFlagsEt
_ZN6TagLib2XM10Properties8setTempoEt
_ZN6TagLib2XM10PropertiesC1ENS_15AudioProperties9ReadStyleE
_ZN6TagLib2XM10PropertiesC2ENS_15AudioProperties9ReadStyleE
_ZN6TagLib2XM10PropertiesD0Ev
_ZN6TagLib2XM10PropertiesD1Ev
_ZN6TagLib2XM10PropertiesD2Ev
_ZN6TagLib2XM4File13setPropertiesERKNS_11PropertyMapE
_ZN6TagLib2XM4File4readEb
_ZN6TagLib2XM4File4saveEv
_ZN6TagLib2XM4FileC1ENS_8FileNameEbNS_15AudioProperties9ReadStyleE
_ZN6TagLib2XM4FileC1EPNS_8IOStreamEbNS_15AudioProperties9ReadStyleE
_ZN6TagLib2XM4FileC2ENS_8FileNameEbNS_15AudioProperties9ReadStyleE
_ZN6TagLib2XM4FileC2EPNS_8IOStreamEbNS_15AudioProperties9ReadStyleE
_ZN6TagLib2XM4FileD0Ev
_ZN6TagLib2XM4FileD1Ev
_ZN6TagLib2XM4FileD2Ev
_ZN6TagLib3APE10Properties10analyzeOldEPNS0_4FileE
_ZN6TagLib3APE10Properties14analyzeCurrentEPNS0_4FileE
_ZN6TagLib3APE10Properties4readEPNS0_4FileEl
_ZN6TagLib3APE10PropertiesC1EPNS0_4FileENS_15AudioProperties9ReadStyleE
_ZN6TagLib3APE10PropertiesC1EPNS0_4FileElNS_15AudioProperties9ReadStyleE
_ZN6TagLib3APE10PropertiesC2EPNS0_4FileENS_15AudioProperties9ReadStyleE
_ZN6TagLib3APE10PropertiesC2EPNS0_4FileElNS_15AudioProperties9ReadStyleE
_ZN6TagLib3APE10PropertiesD0Ev
_ZN6TagLib3APE10PropertiesD1Ev
_ZN6TagLib3APE10PropertiesD2Ev
_ZN6TagLib3APE3Tag10removeItemERKNS_6StringE
_ZN6TagLib3APE3Tag10setCommentERKNS_6StringE
_ZN6TagLib3APE3Tag13setPropertiesERKNS_11PropertyMapE
_ZN6TagLib3APE3Tag14fileIdentifierEv
_ZN6TagLib3APE3Tag27removeUnsupportedPropertiesERKNS_10StringListE
_ZN6TagLib3APE3Tag4readEv
_ZN6TagLib3APE3Tag5parseERKNS_10ByteVectorE
_ZN6TagLib3APE3Tag7setDataERKNS_6StringERKNS_10ByteVectorE
_ZN6TagLib3APE3Tag7setItemERKNS_6StringERKNS0_4ItemE
_ZN6TagLib3APE3Tag7setYearEj
_ZN6TagLib3APE3Tag8addValueERKNS_6StringES4_b
_ZN6TagLib3APE3Tag8checkKeyERKNS_6StringE
_ZN6TagLib3APE3Tag8setAlbumERKNS_6StringE
_ZN6TagLib3APE3Tag8setGenreERKNS_6StringE
_ZN6TagLib3APE3Tag8setTitleERKNS_6StringE
_ZN6TagLib3APE3Tag8setTrackEj
_ZN6TagLib3APE3Tag9setArtistERKNS_6StringE
_ZN6TagLib3APE3TagC1EPNS_4FileEl
_ZN6TagLib3APE3TagC1Ev
_ZN6TagLib3APE3TagC2EPNS_4FileEl
_ZN6TagLib3APE3TagC2Ev
_ZN6TagLib3APE3TagD0Ev
_ZN6TagLib3APE3TagD1Ev
_ZN6TagLib3APE3TagD2Ev
_ZN6TagLib3APE4File13setPropertiesERKNS_11PropertyMapE
_ZN6TagLib3APE4File27removeUnsupportedPropertiesERKNS_10StringListE
_ZN6TagLib3APE4File4readEb
_ZN6TagLib3APE4File4saveEv
_ZN6TagLib3APE4File5stripEi
_ZN6TagLib3APE4File6APETagEb
_ZN6TagLib3APE4File8ID3v1TagEb
_ZN6TagLib3APE4FileC1ENS_8FileNameEbNS_15AudioProperties9ReadStyleE
_ZN6TagLib3APE4FileC1EPNS_8IOStreamEbNS_15AudioProperties9ReadStyleE
_ZN6TagLib3APE4FileC2ENS_8FileNameEbNS_15AudioProperties9ReadStyleE
_ZN6TagLib3APE4FileC2EPNS_8IOStreamEbNS_15AudioProperties9ReadStyleE
_ZN6TagLib3APE4FileD0Ev
_ZN6TagLib3APE4FileD1Ev
_ZN6TagLib3APE4FileD2Ev
_ZN6TagLib3APE4Item11appendValueERKNS_6StringE
_ZN6TagLib3APE4Item11setReadOnlyEb
_ZN6TagLib3APE4Item12appendValuesERKNS_10StringListE
_ZN6TagLib3APE4Item13setBinaryDataERKNS_10ByteVectorE
_ZN6TagLib3APE4Item4swapERS1_
_ZN6TagLib3APE4Item5parseERKNS_10ByteVectorE
_ZN6TagLib3APE4Item6setKeyERKNS_6StringE
_ZN6TagLib3APE4Item7setTypeENS1_9ItemTypesE
_ZN6TagLib3APE4Item8setValueERKNS_6StringE
_ZN6TagLib3APE4Item9setValuesERKNS_10StringListE
_ZN6TagLib3APE4ItemC1ERKNS_6StringERKNS_10ByteVectorEb
_ZN6TagLib3APE4ItemC1ERKNS_6StringERKNS_10StringListE
_ZN6TagLib3APE4ItemC1ERKNS_6StringES4_
_ZN6TagLib3APE4ItemC1ERKS1_
_ZN6TagLib3APE4ItemC1Ev
_ZN6TagLib3APE4ItemC2ERKNS_6StringERKNS_10ByteVectorEb
_ZN6TagLib3APE4ItemC2ERKNS_6StringERKNS_10StringListE
_ZN6TagLib3APE4ItemC2ERKNS_6StringES4_
_ZN6TagLib3APE4ItemC2ERKS1_
_ZN6TagLib3APE4ItemC2Ev
_ZN6TagLib3APE4ItemD0Ev
_ZN6TagLib3APE4ItemD1Ev
_ZN6TagLib3APE4ItemD2Ev
_ZN6TagLib3APE4ItemaSERKS1_
_ZN6TagLib3APE6Footer10setTagSizeEj
_ZN6TagLib3APE6Footer12setItemCountEj
_ZN6TagLib3APE6Footer14fileIdentifierEv
_ZN6TagLib3APE6Footer4sizeEv
_ZN6TagLib3APE6Footer5parseERKNS_10ByteVectorE
_ZN6TagLib3APE6Footer7setDataERKNS_10ByteVectorE
_ZN6TagLib3APE6FooterC1ERKNS_10ByteVectorE
_ZN6TagLib3APE6FooterC1Ev
_ZN6TagLib3APE6FooterC2ERKNS_10ByteVectorE
_ZN6TagLib3APE6FooterC2Ev
_ZN6TagLib3APE6FooterD0Ev
_ZN6TagLib3APE6FooterD1Ev
_ZN6TagLib3APE6FooterD2Ev
_ZN6TagLib3ASF10Properties10setBitrateEi
_ZN6TagLib3ASF10Properties11setChannelsEi
_ZN6TagLib3ASF10Properties12setCodecNameERKNS_6StringE
_ZN6TagLib3ASF10Properties12setEncryptedEb
_ZN6TagLib3ASF10Properties13setSampleRateEi
_ZN6TagLib3ASF10Properties16setBitsPerSampleEi
_ZN6TagLib3ASF10Properties19setCodecDescriptionERKNS_6StringE
_ZN6TagLib3ASF10Properties23setLengthInMillisecondsEi
_ZN6TagLib3ASF10Properties8setCodecEi
_ZN6TagLib3ASF10Properties9setLengthEi
_ZN6TagLib3ASF10PropertiesC1Ev
_ZN6TagLib3ASF10PropertiesC2Ev
_ZN6TagLib3ASF10PropertiesD0Ev
_ZN6TagLib3ASF10PropertiesD1Ev
_ZN6TagLib3ASF10PropertiesD2Ev
_ZN6TagLib3ASF3Tag10removeItemERKNS_6StringE
_ZN6TagLib3ASF3Tag10setCommentERKNS_6StringE
_ZN6TagLib3ASF3Tag12addAttributeERKNS_6StringERKNS0_9AttributeE
_ZN6TagLib3ASF3Tag12setAttributeERKNS_6StringERKNS0_9AttributeE
_ZN6TagLib3ASF3Tag12setAttributeERKNS_6StringERKNS_4ListINS0_9AttributeEEE
_ZN6TagLib3ASF3Tag12setCopyrightERKNS_6StringE
_ZN6TagLib3ASF3Tag13setPropertiesERKNS_11PropertyMapE
_ZN6TagLib3ASF3Tag16attributeListMapEv
_ZN6TagLib3ASF3Tag27removeUnsupportedPropertiesERKNS_10StringListE
_ZN6TagLib3ASF3Tag7setYearEj
_ZN6TagLib3ASF3Tag8setAlbumERKNS_6StringE
_ZN6TagLib3ASF3Tag8setGenreERKNS_6StringE
_ZN6TagLib3ASF3Tag8setTitleERKNS_6StringE
_ZN6TagLib3ASF3Tag8setTrackEj
_ZN6TagLib3ASF3Tag9setArtistERKNS_6StringE
_ZN6TagLib3ASF3Tag9setRatingERKNS_6StringE
_ZN6TagLib3ASF3TagC1Ev
_ZN6TagLib3ASF3TagC2Ev
_ZN6TagLib3ASF3TagD0Ev
_ZN6TagLib3ASF3TagD1Ev
_ZN6TagLib3ASF3TagD2Ev
_ZN6TagLib3ASF4File13setPropertiesERKNS_11PropertyMapE
_ZN6TagLib3ASF4File27removeUnsupportedPropertiesERKNS_10StringListE
_ZN6TagLib3ASF4File4readEv
_ZN6TagLib3ASF4File4saveEv
_ZN6TagLib3ASF4FileC1ENS_8FileNameEbNS_15AudioProperties9ReadStyleE
_ZN6TagLib3ASF4FileC1EPNS_8IOStreamEbNS_15AudioProperties9ReadStyleE
_ZN6TagLib3ASF4FileC2ENS_8FileNameEbNS_15AudioProperties9ReadStyleE
_ZN6TagLib3ASF4FileC2EPNS_8IOStreamEbNS_15AudioProperties9ReadStyleE
_ZN6TagLib3ASF4FileD0Ev
_ZN6TagLib3ASF4FileD1Ev
_ZN6TagLib3ASF4FileD2Ev
_ZN6TagLib3ASF7Picture10setPictureERKNS_10ByteVectorE
_ZN6TagLib3ASF7Picture11fromInvalidEv
_ZN6TagLib3ASF7Picture11setMimeTypeERKNS_6StringE
_ZN6TagLib3ASF7Picture14setDescriptionERKNS_6StringE
_ZN6TagLib3ASF7Picture4swapERS1_
_ZN6TagLib3ASF7Picture5parseERKNS_10ByteVectorE
_ZN6TagLib3ASF7Picture7setTypeERKNS1_4TypeE
_ZN6TagLib3ASF7PictureC1ERKS1_
_ZN6TagLib3ASF7PictureC1Ev
_ZN6TagLib3ASF7PictureC2ERKS1_
_ZN6TagLib3ASF7PictureC2Ev
_ZN6TagLib3ASF7PictureD0Ev
_ZN6TagLib3ASF7PictureD1Ev
_ZN6TagLib3ASF7PictureD2Ev
_ZN6TagLib3ASF7PictureaSERKS1_
_ZN6TagLib3ASF9Attribute11setLanguageEi
_ZN6TagLib3ASF9Attribute4swapERS1_
_ZN6TagLib3ASF9Attribute5parseERNS0_4FileEi
_ZN6TagLib3ASF9Attribute9setStreamEi
_ZN6TagLib3ASF9AttributeC1ERKNS0_7PictureE
_ZN6TagLib3ASF9AttributeC1ERKNS_10ByteVectorE
_ZN6TagLib3ASF9AttributeC1ERKNS_6StringE
_ZN6TagLib3ASF9AttributeC1ERKS1_
_ZN6TagLib3ASF9AttributeC1Eb
_ZN6TagLib3ASF9AttributeC1Ej
_ZN6TagLib3ASF9AttributeC1Et
_ZN6TagLib3ASF9AttributeC1Ev
_ZN6TagLib3ASF9AttributeC1Ey
_ZN6TagLib3ASF9AttributeC2ERKNS0_7PictureE
_ZN6TagLib3ASF9AttributeC2ERKNS_10ByteVectorE
_ZN6TagLib3ASF9AttributeC2ERKNS_6StringE
_ZN6TagLib3ASF9AttributeC2ERKS1_
_ZN6TagLib3ASF9AttributeC2Eb
_ZN6TagLib3ASF9AttributeC2Ej
_ZN6TagLib3ASF9AttributeC2Et
_ZN6TagLib3ASF9AttributeC2Ev
_ZN6TagLib3ASF9AttributeC2Ey
_ZN6TagLib3ASF9AttributeD0Ev
_ZN6TagLib3ASF9AttributeD1Ev
_ZN6TagLib3ASF9AttributeD2Ev
_ZN6TagLib3ASF9AttributeaSERKS1_
_ZN6TagLib3MP410Properties4readEPNS0_4FileEPNS0_5AtomsE
_ZN6TagLib3MP410PropertiesC1EPNS0_4FileEPNS0_5AtomsENS_15AudioProperties9ReadStyleE
_ZN6TagLib3MP410PropertiesC2EPNS0_4FileEPNS0_5AtomsENS_15AudioProperties9ReadStyleE
_ZN6TagLib3MP410PropertiesD0Ev
_ZN6TagLib3MP410PropertiesD1Ev
_ZN6TagLib3MP410PropertiesD2Ev
_ZN6TagLib3MP43Tag10parseData2EPKNS0_4AtomEib
_ZN6TagLib3MP43Tag10removeItemERKNS_6StringE
_ZN6TagLib3MP43Tag10setCommentERKNS_6StringE
_ZN6TagLib3MP43Tag11itemListMapEv
_ZN6TagLib3MP43Tag12parseIntPairEPKNS0_4AtomE
_ZN6TagLib3MP43Tag12saveExistingENS_10ByteVectorERKNS_4ListIPNS0_4AtomEEE
_ZN6TagLib3MP43Tag13parseFreeFormEPKNS0_4AtomE
_ZN6TagLib3MP43Tag13parseLongLongEPKNS0_4AtomE
_ZN6TagLib3MP43Tag13setPropertiesERKNS_11PropertyMapE
_ZN6TagLib3MP43Tag13updateOffsetsEll
_ZN6TagLib3MP43Tag13updateParentsERKNS_4ListIPNS0_4AtomEEEli
_ZN6TagLib3MP43Tag27removeUnsupportedPropertiesERKNS_10StringListE
_ZN6TagLib3MP43Tag4saveEv
_ZN6TagLib3MP43Tag7addItemERKNS_6StringERKNS0_4ItemE
_ZN6TagLib3MP43Tag7saveNewENS_10ByteVectorE
_ZN6TagLib3MP43Tag7setItemERKNS_6StringERKNS0_4ItemE
_ZN6TagLib3MP43Tag7setYearEj
_ZN6TagLib3MP43Tag8parseIntEPKNS0_4AtomE
_ZN6TagLib3MP43Tag8setAlbumERKNS_6StringE
_ZN6TagLib3MP43Tag8setGenreERKNS_6StringE
_ZN6TagLib3MP43Tag8setTitleERKNS_6StringE
_ZN6TagLib3MP43Tag8setTrackEj
_ZN6TagLib3MP43Tag9parseBoolEPKNS0_4AtomE
_ZN6TagLib3MP43Tag9parseByteEPKNS0_4AtomE
_ZN6TagLib3MP43Tag9parseCovrEPKNS0_4AtomE
_ZN6TagLib3MP43Tag9parseDataEPKNS0_4AtomEib
_ZN6TagLib3MP43Tag9parseGnreEPKNS0_4AtomE
_ZN6TagLib3MP43Tag9parseTextEPKNS0_4AtomEi
_ZN6TagLib3MP43Tag9parseUIntEPKNS0_4AtomE
_ZN6TagLib3MP43Tag9setArtistERKNS_6StringE
_ZN6TagLib3MP43TagC1EPNS_4FileEPNS0_5AtomsE
_ZN6TagLib3MP43TagC1Ev
_ZN6TagLib3MP43TagC2EPNS_4FileEPNS0_5AtomsE
_ZN6TagLib3MP43TagC2Ev
_ZN6TagLib3MP43TagD0Ev
_ZN6TagLib3MP43TagD1Ev
_ZN6TagLib3MP43TagD2Ev
_ZN6TagLib3MP44File13setPropertiesERKNS_11PropertyMapE
_ZN6TagLib3MP44File27removeUnsupportedPropertiesERKNS_10StringListE
_ZN6TagLib3MP44File4readEb
_ZN6TagLib3MP44File4saveEv
_ZN6TagLib3MP44FileC1ENS_8FileNameEbNS_15AudioProperties9ReadStyleE
_ZN6TagLib3MP44FileC1EPNS_8IOStreamEbNS_15AudioProperties9ReadStyleE
_ZN6TagLib3MP44FileC2ENS_8FileNameEbNS_15AudioProperties9ReadStyleE
_ZN6TagLib3MP44FileC2EPNS_8IOStreamEbNS_15AudioProperties9ReadStyleE
_ZN6TagLib3MP44FileD0Ev
_ZN6TagLib3MP44FileD1Ev
_ZN6TagLib3MP44FileD2Ev
_ZN6TagLib3MP44Item15setAtomDataTypeENS0_12AtomDataTypeE
_ZN6TagLib3MP44Item4swapERS1_
_ZN6TagLib3MP44ItemC1ERKNS_10StringListE
_ZN6TagLib3MP44ItemC1ERKNS_14ByteVectorListE
_ZN6TagLib3MP44ItemC1ERKNS_4ListINS0_8CoverArtEEE
_ZN6TagLib3MP44ItemC1ERKS1_
_ZN6TagLib3MP44ItemC1Eb
_ZN6TagLib3MP44ItemC1Eh
_ZN6TagLib3MP44ItemC1Ei
_ZN6TagLib3MP44ItemC1Eii
_ZN6TagLib3MP44ItemC1Ej
_ZN6TagLib3MP44ItemC1Ev
_ZN6TagLib3MP44ItemC1Ex
_ZN6TagLib3MP44ItemC2ERKNS_10StringListE
_ZN6TagLib3MP44ItemC2ERKNS_14ByteVectorListE
_ZN6TagLib3MP44ItemC2ERKNS_4ListINS0_8CoverArtEEE
_ZN6TagLib3MP44ItemC2ERKS1_
_ZN6TagLib3MP44ItemC2Eb
_ZN6TagLib3MP44ItemC2Eh
_ZN6TagLib3MP44ItemC2Ei
_ZN6TagLib3MP44ItemC2Eii
_ZN6TagLib3MP44ItemC2Ej
_ZN6TagLib3MP44ItemC2Ev
_ZN6TagLib3MP44ItemC2Ex
_ZN6TagLib3MP44ItemD1Ev
_ZN6TagLib3MP44ItemD2Ev
_ZN6TagLib3MP44ItemaSERKS1_
_ZN6TagLib3MP48CoverArt4swapERS1_
_ZN6TagLib3MP48CoverArtC1ENS1_6FormatERKNS_10ByteVectorE
_ZN6TagLib3MP48CoverArtC1ERKS1_
_ZN6TagLib3MP48CoverArtC2ENS1_6FormatERKNS_10ByteVectorE
_ZN6TagLib3MP48CoverArtC2ERKS1_
_ZN6TagLib3MP48CoverArtD1Ev
_ZN6TagLib3MP48CoverArtD2Ev
_ZN6TagLib3MP48CoverArtaSERKS1_
_ZN6TagLib3MPC10Properties7readSV7ERKNS_10ByteVectorEl
_ZN6TagLib3MPC10Properties7readSV8EPNS0_4FileEl
_ZN6TagLib3MPC10PropertiesC1EPNS0_4FileElNS_15AudioProperties9ReadStyleE
_ZN6TagLib3MPC10PropertiesC1ERKNS_10ByteVectorElNS_15AudioProperties9ReadStyleE
_ZN6TagLib3MPC10PropertiesC2EPNS0_4FileElNS_15AudioProperties9ReadStyleE
_ZN6TagLib3MPC10PropertiesC2ERKNS_10ByteVectorElNS_15AudioProperties9ReadStyleE
_ZN6TagLib3MPC10PropertiesD0Ev
_ZN6TagLib3MPC10PropertiesD1Ev
_ZN6TagLib3MPC10PropertiesD2Ev
_ZN6TagLib3MPC4File13setPropertiesERKNS_11PropertyMapE
_ZN6TagLib3MPC4File27removeUnsupportedPropertiesERKNS_10StringListE
_ZN6TagLib3MPC4File4readEb
_ZN6TagLib3MPC4File4saveEv
_ZN6TagLib3MPC4File5stripEi
_ZN6TagLib3MPC4File6APETagEb
_ZN6TagLib3MPC4File6removeEi
_ZN6TagLib3MPC4File8ID3v1TagEb
_ZN6TagLib3MPC4FileC1ENS_8FileNameEbNS_15AudioProperties9ReadStyleE
_ZN6TagLib3MPC4FileC1EPNS_8IOStreamEbNS_15AudioProperties9ReadStyleE
_ZN6TagLib3MPC4FileC2ENS_8FileNameEbNS_15AudioProperties9ReadStyleE
_ZN6TagLib3MPC4FileC2EPNS_8IOStreamEbNS_15AudioProperties9ReadStyleE
_ZN6TagLib3MPC4FileD0Ev
_ZN6TagLib3MPC4FileD1Ev
_ZN6TagLib3MPC4FileD2Ev
_ZN6TagLib3Mod10Properties11setChannelsEi
_ZN6TagLib3Mod10Properties18setInstrumentCountEj
_ZN6TagLib3Mod10Properties19setLengthInPatternsEh
_ZN6TagLib3Mod10PropertiesC1ENS_15AudioProperties9ReadStyleE
_ZN6TagLib3Mod10PropertiesC2ENS_15AudioProperties9ReadStyleE
_ZN6TagLib3Mod10PropertiesD0Ev
_ZN6TagLib3Mod10PropertiesD1Ev
_ZN6TagLib3Mod10PropertiesD2Ev
_ZN6TagLib3Mod3Tag10setCommentERKNS_6StringE
_ZN6TagLib3Mod3Tag13setPropertiesERKNS_11PropertyMapE
_ZN6TagLib3Mod3Tag14setTrackerNameERKNS_6StringE
_ZN6TagLib3Mod3Tag7setYearEj
_ZN6TagLib3Mod3Tag8setAlbumERKNS_6StringE
_ZN6TagLib3Mod3Tag8setGenreERKNS_6StringE
_ZN6TagLib3Mod3Tag8setTitleERKNS_6StringE
_ZN6TagLib3Mod3Tag8setTrackEj
_ZN6TagLib3Mod3Tag9setArtistERKNS_6StringE
_ZN6TagLib3Mod3TagC1Ev
_ZN6TagLib3Mod3TagC2Ev
_ZN6TagLib3Mod3TagD0Ev
_ZN6TagLib3Mod3TagD1Ev
_ZN6TagLib3Mod3TagD2Ev
_ZN6TagLib3Mod4File13setPropertiesERKNS_11PropertyMapE
_ZN6TagLib3Mod4File4readEb
_ZN6TagLib3Mod4File4saveEv
_ZN6TagLib3Mod4FileC1ENS_8FileNameEbNS_15AudioProperties9ReadStyleE
_ZN6TagLib3Mod4FileC1EPNS_8IOStreamEbNS_15AudioProperties9ReadStyleE
_ZN6TagLib3Mod4FileC2ENS_8FileNameEbNS_15AudioProperties9ReadStyleE
_ZN6TagLib3Mod4FileC2EPNS_8IOStreamEbNS_15AudioProperties9ReadStyleE
_ZN6TagLib3Mod4FileD0Ev
_ZN6TagLib3Mod4FileD1Ev
_ZN6TagLib3Mod4FileD2Ev
_ZN6TagLib3Mod8FileBase10readStringERNS_6StringEm
_ZN6TagLib3Mod8FileBase11writeStringERKNS_6StringEmc
_ZN6TagLib3Mod8FileBase8readByteERh
_ZN6TagLib3Mod8FileBase8readU16BERt
_ZN6TagLib3Mod8FileBase8readU16LERt
_ZN6TagLib3Mod8FileBase8readU32BERm
_ZN6TagLib3Mod8FileBase8readU32LERm
_ZN6TagLib3Mod8FileBase9writeByteEh
_ZN6TagLib3Mod8FileBase9writeU16BEt
_ZN6TagLib3Mod8FileBase9writeU16LEt
_ZN6TagLib3Mod8FileBase9writeU32BEm
_ZN6TagLib3Mod8FileBase9writeU32LEm
_ZN6TagLib3Mod8FileBaseC1ENS_8FileNameE
_ZN6TagLib3Mod8FileBaseC1EPNS_8IOStreamE
_ZN6TagLib3Mod8FileBaseC2ENS_8FileNameE
_ZN6TagLib3Mod8FileBaseC2EPNS_8IOStreamE
_ZN6TagLib3Ogg10PageHeader14setPacketSizesERKNS_4ListIiEE
_ZN6TagLib3Ogg10PageHeader19setLastPageOfStreamEb
_ZN6TagLib3Ogg10PageHeader20setFirstPageOfStreamEb
_ZN6TagLib3Ogg10PageHeader21setPageSequenceNumberEi
_ZN6TagLib3Ogg10PageHeader21setStreamSerialNumberEj
_ZN6TagLib3Ogg10PageHeader22setLastPacketCompletedEb
_ZN6TagLib3Ogg10PageHeader23setFirstPacketContinuedEb
_ZN6TagLib3Ogg10PageHeader27setAbsoluteGranularPositionEx
_ZN6TagLib3Ogg10PageHeader4readEPNS0_4FileEl
_ZN6TagLib3Ogg10PageHeaderC1EPNS0_4FileEl
_ZN6TagLib3Ogg10PageHeaderC2EPNS0_4FileEl
_ZN6TagLib3Ogg10PageHeaderD0Ev
_ZN6TagLib3Ogg10PageHeaderD1Ev
_ZN6TagLib3Ogg10PageHeaderD2Ev
_ZN6TagLib3Ogg11XiphComment10addPictureEPNS_4FLAC7PictureE
_ZN6TagLib3Ogg11XiphComment10setCommentERKNS_6StringE
_ZN6TagLib3Ogg11XiphComment11pictureListEv
_ZN6TagLib3Ogg11XiphComment11removeFieldERKNS_6StringES4_
_ZN6TagLib3Ogg11XiphComment12removeFieldsERKNS_6StringE
_ZN6TagLib3Ogg11XiphComment12removeFieldsERKNS_6StringES4_
_ZN6TagLib3Ogg11XiphComment13removePictureEPNS_4FLAC7PictureEb
_ZN6TagLib3Ogg11XiphComment13setPropertiesERKNS_11PropertyMapE
_ZN6TagLib3Ogg11XiphComment15removeAllFieldsEv
_ZN6TagLib3Ogg11XiphComment17removeAllPicturesEv
_ZN6TagLib3Ogg11XiphComment5parseERKNS_10ByteVectorE
_ZN6TagLib3Ogg11XiphComment7setYearEj
_ZN6TagLib3Ogg11XiphComment8addFieldERKNS_6StringES4_b
_ZN6TagLib3Ogg11XiphComment8checkKeyERKNS_6StringE
_ZN6TagLib3Ogg11XiphComment8setAlbumERKNS_6StringE
_ZN6TagLib3Ogg11XiphComment8setGenreERKNS_6StringE
_ZN6TagLib3Ogg11XiphComment8setTitleERKNS_6StringE
_ZN6TagLib3Ogg11XiphComment8setTrackEj
_ZN6TagLib3Ogg11XiphComment9setArtistERKNS_6StringE
_ZN6TagLib3Ogg11XiphCommentC1ERKNS_10ByteVectorE
_ZN6TagLib3Ogg11XiphCommentC1Ev
_ZN6TagLib3Ogg11XiphCommentC2ERKNS_10ByteVectorE
_ZN6TagLib3Ogg11XiphCommentC2Ev
_ZN6TagLib3Ogg11XiphCommentD0Ev
_ZN6TagLib3Ogg11XiphCommentD1Ev
_ZN6TagLib3Ogg11XiphCommentD2Ev
_ZN6TagLib3Ogg4FLAC4File12streamLengthEv
_ZN6TagLib3Ogg4FLAC4File13setPropertiesERKNS_11PropertyMapE
_ZN6TagLib3Ogg4FLAC4File14streamInfoDataEv
_ZN6TagLib3Ogg4FLAC4File15xiphCommentDataEv
_ZN6TagLib3Ogg4FLAC4File4readEbNS_15AudioProperties9ReadStyleE
_ZN6TagLib3Ogg4FLAC4File4saveEv
_ZN6TagLib3Ogg4FLAC4File4scanEv
_ZN6TagLib3Ogg4FLAC4FileC1ENS_8FileNameEbNS_15AudioProperties9ReadStyleE
_ZN6TagLib3Ogg4FLAC4FileC1EPNS_8IOStreamEbNS_15AudioProperties9ReadStyleE
_ZN6TagLib3Ogg4FLAC4FileC2ENS_8FileNameEbNS_15AudioProperties9ReadStyleE
_ZN6TagLib3Ogg4FLAC4FileC2EPNS_8IOStreamEbNS_15AudioProperties9ReadStyleE
_ZN6TagLib3Ogg4FLAC4FileD0Ev
_ZN6TagLib3Ogg4FLAC4FileD1Ev
_ZN6TagLib3Ogg4FLAC4FileD2Ev
_ZN6TagLib3Ogg4File11writePacketEjRKNS_10ByteVectorE
_ZN6TagLib3Ogg4File14lastPageHeaderEv
_ZN6TagLib3Ogg4File15firstPageHeaderEv
_ZN6TagLib3Ogg4File4saveEv
_ZN6TagLib3Ogg4File6packetEj
_ZN6TagLib3Ogg4File9readPagesEj
_ZN6TagLib3Ogg4File9setPacketEjRKNS_10ByteVectorE
_ZN6TagLib3Ogg4FileC1ENS_8FileNameE
_ZN6TagLib3Ogg4FileC1EPNS_8IOStreamE
_ZN6TagLib3Ogg4FileC2ENS_8FileNameE
_ZN6TagLib3Ogg4FileC2EPNS_8IOStreamE
_ZN6TagLib3Ogg4FileD0Ev
_ZN6TagLib3Ogg4FileD1Ev
_ZN6TagLib3Ogg4FileD2Ev
_ZN6TagLib3Ogg4Opus10Properties4readEPNS1_4FileE
_ZN6TagLib3Ogg4Opus10PropertiesC1EPNS1_4FileENS_15AudioProperties9ReadStyleE
_ZN6TagLib3Ogg4Opus10PropertiesC2EPNS1_4FileENS_15AudioProperties9ReadStyleE
_ZN6TagLib3Ogg4Opus10PropertiesD0Ev
_ZN6TagLib3Ogg4Opus10PropertiesD1Ev
_ZN6TagLib3Ogg4Opus10PropertiesD2Ev
_ZN6TagLib3Ogg4Opus4File13setPropertiesERKNS_11PropertyMapE
_ZN6TagLib3Ogg4Opus4File4readEb
_ZN6TagLib3Ogg4Opus4File4saveEv
_ZN6TagLib3Ogg4Opus4FileC1ENS_8FileNameEbNS_15AudioProperties9ReadStyleE
_ZN6TagLib3Ogg4Opus4FileC1EPNS_8IOStreamEbNS_15AudioProperties9ReadStyleE
_ZN6TagLib3Ogg4Opus4FileC2ENS_8FileNameEbNS_15AudioProperties9ReadStyleE
_ZN6TagLib3Ogg4Opus4FileC2EPNS_8IOStreamEbNS_15AudioProperties9ReadStyleE
_ZN6TagLib3Ogg4Opus4FileD0Ev
_ZN6TagLib3Ogg4Opus4FileD1Ev
_ZN6TagLib3Ogg4Opus4FileD2Ev
_ZN6TagLib3Ogg4Page19setFirstPacketIndexEi
_ZN6TagLib3Ogg4Page21setPageSequenceNumberEi
_ZN6TagLib3Ogg4Page32getCopyWithNewPageSequenceNumberEi
_ZN6TagLib3Ogg4Page8paginateERKNS_14ByteVectorListENS1_18PaginationStrategyEjibbb
_ZN6TagLib3Ogg4PageC1EPNS0_4FileEl
_ZN6TagLib3Ogg4PageC1ERKNS_14ByteVectorListEjibbb
_ZN6TagLib3Ogg4PageC2EPNS0_4FileEl
_ZN6TagLib3Ogg4PageC2ERKNS_14ByteVectorListEjibbb
_ZN6TagLib3Ogg4PageD0Ev
_ZN6TagLib3Ogg4PageD1Ev
_ZN6TagLib3Ogg4PageD2Ev
_ZN6TagLib3Ogg5Speex10Properties4readEPNS1_4FileE
_ZN6TagLib3Ogg5Speex10PropertiesC1EPNS1_4FileENS_15AudioProperties9ReadStyleE
_ZN6TagLib3Ogg5Speex10PropertiesC2EPNS1_4FileENS_15AudioProperties9ReadStyleE
_ZN6TagLib3Ogg5Speex10PropertiesD0Ev
_ZN6TagLib3Ogg5Speex10PropertiesD1Ev
_ZN6TagLib3Ogg5Speex10PropertiesD2Ev
_ZN6TagLib3Ogg5Speex4File13setPropertiesERKNS_11PropertyMapE
_ZN6TagLib3Ogg5Speex4File4readEb
_ZN6TagLib3Ogg5Speex4File4saveEv
_ZN6TagLib3Ogg5Speex4FileC1ENS_8FileNameEbNS_15AudioProperties9ReadStyleE
_ZN6TagLib3Ogg5Speex4FileC1EPNS_8IOStreamEbNS_15AudioProperties9ReadStyleE
_ZN6TagLib3Ogg5Speex4FileC2ENS_8FileNameEbNS_15AudioProperties9ReadStyleE
_ZN6TagLib3Ogg5Speex4FileC2EPNS_8IOStreamEbNS_15AudioProperties9ReadStyleE
_ZN6TagLib3Ogg5Speex4FileD0Ev
_ZN6TagLib3Ogg5Speex4FileD1Ev
_ZN6TagLib3Ogg5Speex4FileD2Ev
_ZN6TagLib3S3M10Properties11setBpmSpeedEh
_ZN6TagLib3S3M10Properties11setChannelsEi
_ZN6TagLib3S3M10Properties14setSampleCountEt
_ZN6TagLib3S3M10Properties15setGlobalVolumeEh
_ZN6TagLib3S3M10Properties15setMasterVolumeEh
_ZN6TagLib3S3M10Properties15setPatternCountEt
_ZN6TagLib3S3M10Properties17setTrackerVersionEt
_ZN6TagLib3S3M10Properties19setLengthInPatternsEt
_ZN6TagLib3S3M10Properties20setFileFormatVersionEt
_ZN6TagLib3S3M10Properties8setFlagsEt
_ZN6TagLib3S3M10Properties8setTempoEh
_ZN6TagLib3S3M10Properties9setStereoEb
_ZN6TagLib3S3M10PropertiesC1ENS_15AudioProperties9ReadStyleE
_ZN6TagLib3S3M10PropertiesC2ENS_15AudioProperties9ReadStyleE
_ZN6TagLib3S3M10PropertiesD0Ev
_ZN6TagLib3S3M10PropertiesD1Ev
_ZN6TagLib3S3M10PropertiesD2Ev
_ZN6TagLib3S3M4File13setPropertiesERKNS_11PropertyMapE
_ZN6TagLib3S3M4File4readEb
_ZN6TagLib3S3M4File4saveEv
_ZN6TagLib3S3M4FileC1ENS_8FileNameEbNS_15AudioProperties9ReadStyleE
_ZN6TagLib3S3M4FileC1EPNS_8IOStreamEbNS_15AudioProperties9ReadStyleE
_ZN6TagLib3S3M4FileC2ENS_8FileNameEbNS_15AudioProperties9ReadStyleE
_ZN6TagLib3S3M4FileC2EPNS_8IOStreamEbNS_15AudioProperties9ReadStyleE
_ZN6TagLib3S3M4FileD0Ev
_ZN6TagLib3S3M4FileD1Ev
_ZN6TagLib3S3M4FileD2Ev
_ZN6TagLib3Tag13setPropertiesERKNS_11PropertyMapE
_ZN6TagLib3Tag27removeUnsupportedPropertiesERKNS_10StringListE
_ZN6TagLib3Tag9duplicateEPKS0_PS0_b
_ZN6TagLib3TagC1Ev
_ZN6TagLib3TagC2Ev
_ZN6TagLib3TagD0Ev
_ZN6TagLib3TagD1Ev
_ZN6TagLib3TagD2Ev
_ZN6TagLib4FLAC10Properties4readERKNS_10ByteVectorEl
_ZN6TagLib4FLAC10PropertiesC1ENS_10ByteVectorElNS_15AudioProperties9ReadStyleE
_ZN6TagLib4FLAC10PropertiesC1EPNS0_4FileENS_15AudioProperties9ReadStyleE
_ZN6TagLib4FLAC10PropertiesC2ENS_10ByteVectorElNS_15AudioProperties9ReadStyleE
_ZN6TagLib4FLAC10PropertiesC2EPNS0_4FileENS_15AudioProperties9ReadStyleE
_ZN6TagLib4FLAC10PropertiesD0Ev
_ZN6TagLib4FLAC10PropertiesD1Ev
_ZN6TagLib4FLAC10PropertiesD2Ev
_ZN6TagLib4FLAC13MetadataBlockC1Ev
_ZN6TagLib4FLAC13MetadataBlockC2Ev
_ZN6TagLib4FLAC13MetadataBlockD0Ev
_ZN6TagLib4FLAC13MetadataBlockD1Ev
_ZN6TagLib4FLAC13MetadataBlockD2Ev
_ZN6TagLib4FLAC20UnknownMetadataBlock7setCodeEi
_ZN6TagLib4FLAC20UnknownMetadataBlock7setDataERKNS_10ByteVectorE
_ZN6TagLib4FLAC20UnknownMetadataBlockC1EiRKNS_10ByteVectorE
_ZN6TagLib4FLAC20UnknownMetadataBlockC2EiRKNS_10ByteVectorE
_ZN6TagLib4FLAC20UnknownMetadataBlockD0Ev
_ZN6TagLib4FLAC20UnknownMetadataBlockD1Ev
_ZN6TagLib4FLAC20UnknownMetadataBlockD2Ev
_ZN6TagLib4FLAC4File10addPictureEPNS0_7PictureE
_ZN6TagLib4FLAC4File11pictureListEv
_ZN6TagLib4FLAC4File11xiphCommentEb
_ZN6TagLib4FLAC4File12streamLengthEv
_ZN6TagLib4FLAC4File13removePictureEPNS0_7PictureEb
_ZN6TagLib4FLAC4File13setPropertiesERKNS_11PropertyMapE
_ZN6TagLib4FLAC4File14removePicturesEv
_ZN6TagLib4FLAC4File14streamInfoDataEv
_ZN6TagLib4FLAC4File20setID3v2FrameFactoryEPKNS_5ID3v212FrameFactoryE
_ZN6TagLib4FLAC4File27removeUnsupportedPropertiesERKNS_10StringListE
_ZN6TagLib4FLAC4File4readEb
_ZN6TagLib4FLAC4File4saveEv
_ZN6TagLib4FLAC4File4scanEv
_ZN6TagLib4FLAC4File5stripEi
_ZN6TagLib4FLAC4File8ID3v1TagEb
_ZN6TagLib4FLAC4File8ID3v2TagEb
_ZN6TagLib4FLAC4FileC1ENS_8FileNameEPNS_5ID3v212FrameFactoryEbNS_15AudioProperties9ReadStyleE
_ZN6TagLib4FLAC4FileC1ENS_8FileNameEbNS_15AudioProperties9ReadStyleE
_ZN6TagLib4FLAC4FileC1EPNS_8IOStreamEPNS_5ID3v212FrameFactoryEbNS_15AudioProperties9ReadStyleE
_ZN6TagLib4FLAC4FileC2ENS_8FileNameEPNS_5ID3v212FrameFactoryEbNS_15AudioProperties9ReadStyleE
_ZN6TagLib4FLAC4FileC2ENS_8FileNameEbNS_15AudioProperties9ReadStyleE
_ZN6TagLib4FLAC4FileC2EPNS_8IOStreamEPNS_5ID3v212FrameFactoryEbNS_15AudioProperties9ReadStyleE
_ZN6TagLib4FLAC4FileD0Ev
_ZN6TagLib4FLAC4FileD1Ev
_ZN6TagLib4FLAC4FileD2Ev
_ZN6TagLib4FLAC7Picture11setMimeTypeERKNS_6StringE
_ZN6TagLib4FLAC7Picture12setNumColorsEi
_ZN6TagLib4FLAC7Picture13setColorDepthEi
_ZN6TagLib4FLAC7Picture14setDescriptionERKNS_6StringE
_ZN6TagLib4FLAC7Picture5parseERKNS_10ByteVectorE
_ZN6TagLib4FLAC7Picture7setDataERKNS_10ByteVectorE
_ZN6TagLib4FLAC7Picture7setTypeENS1_4TypeE
_ZN6TagLib4FLAC7Picture8setWidthEi
_ZN6TagLib4FLAC7Picture9setHeightEi
_ZN6TagLib4FLAC7PictureC1ERKNS_10ByteVectorE
_ZN6TagLib4FLAC7PictureC1Ev
_ZN6TagLib4FLAC7PictureC2ERKNS_10ByteVectorE
_ZN6TagLib4FLAC7PictureC2Ev
_ZN6TagLib4FLAC7PictureD0Ev
_ZN6TagLib4FLAC7PictureD1Ev
_ZN6TagLib4FLAC7PictureD2Ev
_ZN6TagLib4File10bufferSizeEv
_ZN6TagLib4File10isReadableEPKc
_ZN6TagLib4File10isWritableEPKc
_ZN6TagLib4File10writeBlockERKNS_10ByteVectorE
_ZN6TagLib4File11removeBlockEmm
_ZN6TagLib4File13setPropertiesERKNS_11PropertyMapE
_ZN6TagLib4File27removeUnsupportedPropertiesERKNS_10StringListE
_ZN6TagLib4File4findERKNS_10ByteVectorElS3_
_ZN6TagLib4File4seekElNS0_8PositionE
_ZN6TagLib4File5clearEv
_ZN6TagLib4File5rfindERKNS_10ByteVectorElS3_
_ZN6TagLib4File6insertERKNS_10ByteVectorEmm
_ZN6TagLib4File6lengthEv
_ZN6TagLib4File8setValidEb
_ZN6TagLib4File8truncateEl
_ZN6TagLib4File9readBlockEm
_ZN6TagLib4FileC1ENS_8FileNameE
_ZN6TagLib4FileC1EPNS_8IOStreamE
_ZN6TagLib4FileC2ENS_8FileNameE
_ZN6TagLib4FileC2EPNS_8IOStreamE
_ZN6TagLib4FileD0Ev
_ZN6TagLib4FileD1Ev
_ZN6TagLib4FileD2Ev
_ZN6TagLib4MPEG10Properties4readEPNS0_4FileE
_ZN6TagLib4MPEG10PropertiesC1EPNS0_4FileENS_15AudioProperties9ReadStyleE
_ZN6TagLib4MPEG10PropertiesC2EPNS0_4FileENS_15AudioProperties9ReadStyleE
_ZN6TagLib4MPEG10PropertiesD0Ev
_ZN6TagLib4MPEG10PropertiesD1Ev
_ZN6TagLib4MPEG10PropertiesD2Ev
_ZN6TagLib4MPEG10XingHeader16xingHeaderOffsetENS0_6Header7VersionENS2_11ChannelModeE
_ZN6TagLib4MPEG10XingHeader5parseERKNS_10ByteVectorE
_ZN6TagLib4MPEG10XingHeaderC1ERKNS_10ByteVectorE
_ZN6TagLib4MPEG10XingHeaderC2ERKNS_10ByteVectorE
_ZN6TagLib4MPEG10XingHeaderD0Ev
_ZN6TagLib4MPEG10XingHeaderD1Ev
_ZN6TagLib4MPEG10XingHeaderD2Ev
_ZN6TagLib4MPEG4File13setPropertiesERKNS_11PropertyMapE
_ZN6TagLib4MPEG4File15lastFrameOffsetEv
_ZN6TagLib4MPEG4File15nextFrameOffsetEl
_ZN6TagLib4MPEG4File16firstFrameOffsetEv
_ZN6TagLib4MPEG4File19previousFrameOffsetEl
_ZN6TagLib4MPEG4File20setID3v2FrameFactoryEPKNS_5ID3v212FrameFactoryE
_ZN6TagLib4MPEG4File27removeUnsupportedPropertiesERKNS_10StringListE
_ZN6TagLib4MPEG4File4readEb
_ZN6TagLib4MPEG4File4saveEi
_ZN6TagLib4MPEG4File4saveEib
_ZN6TagLib4MPEG4File4saveEibi
_ZN6TagLib4MPEG4File4saveEibib
_ZN6TagLib4MPEG4File4saveEv
_ZN6TagLib4MPEG4File5stripEi
_ZN6TagLib4MPEG4File5stripEib
_ZN6TagLib4MPEG4File6APETagEb
_ZN6TagLib4MPEG4File8ID3v1TagEb
_ZN6TagLib4MPEG4File8ID3v2TagEb
_ZN6TagLib4MPEG4File9findID3v2Ev
_ZN6TagLib4MPEG4FileC1ENS_8FileNameEPNS_5ID3v212FrameFactoryEbNS_15AudioProperties9ReadStyleE
_ZN6TagLib4MPEG4FileC1ENS_8FileNameEbNS_15AudioProperties9ReadStyleE
_ZN6TagLib4MPEG4FileC1EPNS_8IOStreamEPNS_5ID3v212FrameFactoryEbNS_15AudioProperties9ReadStyleE
_ZN6TagLib4MPEG4FileC2ENS_8FileNameEPNS_5ID3v212FrameFactoryEbNS_15AudioProperties9ReadStyleE
_ZN6TagLib4MPEG4FileC2ENS_8FileNameEbNS_15AudioProperties9ReadStyleE
_ZN6TagLib4MPEG4FileC2EPNS_8IOStreamEPNS_5ID3v212FrameFactoryEbNS_15AudioProperties9ReadStyleE
_ZN6TagLib4MPEG4FileD0Ev
_ZN6TagLib4MPEG4FileD1Ev
_ZN6TagLib4MPEG4FileD2Ev
_ZN6TagLib4MPEG6Header5parseEPNS_4FileElb
_ZN6TagLib4MPEG6HeaderC1EPNS_4FileElb
_ZN6TagLib4MPEG6HeaderC1ERKNS_10ByteVectorE
_ZN6TagLib4MPEG6HeaderC1ERKS1_
_ZN6TagLib4MPEG6HeaderC2EPNS_4FileElb
_ZN6TagLib4MPEG6HeaderC2ERKNS_10ByteVectorE
_ZN6TagLib4MPEG6HeaderC2ERKS1_
_ZN6TagLib4MPEG6HeaderD0Ev
_ZN6TagLib4MPEG6HeaderD1Ev
_ZN6TagLib4MPEG6HeaderD2Ev
_ZN6TagLib4MPEG6HeaderaSERKS1_
_ZN6TagLib4RIFF3WAV10Properties4readEPNS1_4FileE
_ZN6TagLib4RIFF3WAV10PropertiesC1EPNS1_4FileENS_15AudioProperties9ReadStyleE
_ZN6TagLib4RIFF3WAV10PropertiesC1ERKNS_10ByteVectorENS_15AudioProperties9ReadStyleE
_ZN6TagLib4RIFF3WAV10PropertiesC1ERKNS_10ByteVectorEjNS_15AudioProperties9ReadStyleE
_ZN6TagLib4RIFF3WAV10PropertiesC2EPNS1_4FileENS_15AudioProperties9ReadStyleE
_ZN6TagLib4RIFF3WAV10PropertiesC2ERKNS_10ByteVectorENS_15AudioProperties9ReadStyleE
_ZN6TagLib4RIFF3WAV10PropertiesC2ERKNS_10ByteVectorEjNS_15AudioProperties9ReadStyleE
_ZN6TagLib4RIFF3WAV10PropertiesD0Ev
_ZN6TagLib4RIFF3WAV10PropertiesD1Ev
_ZN6TagLib4RIFF3WAV10PropertiesD2Ev
_ZN6TagLib4RIFF3WAV4File13setPropertiesERKNS_11PropertyMapE
_ZN6TagLib4RIFF3WAV4File15removeTagChunksENS2_8TagTypesE
_ZN6TagLib4RIFF3WAV4File27removeUnsupportedPropertiesERKNS_10StringListE
_ZN6TagLib4RIFF3WAV4File4readEb
_ZN6TagLib4RIFF3WAV4File4saveENS2_8TagTypesEbi
_ZN6TagLib4RIFF3WAV4File4saveEv
_ZN6TagLib4RIFF3WAV4File5stripENS2_8TagTypesE
_ZN6TagLib4RIFF3WAV4FileC1ENS_8FileNameEbNS_15AudioProperties9ReadStyleE
_ZN6TagLib4RIFF3WAV4FileC1EPNS_8IOStreamEbNS_15AudioProperties9ReadStyleE
_ZN6TagLib4RIFF3WAV4FileC2ENS_8FileNameEbNS_15AudioProperties9ReadStyleE
_ZN6TagLib4RIFF3WAV4FileC2EPNS_8IOStreamEbNS_15AudioProperties9ReadStyleE
_ZN6TagLib4RIFF3WAV4FileD0Ev
_ZN6TagLib4RIFF3WAV4FileD1Ev
_ZN6TagLib4RIFF3WAV4FileD2Ev
_ZN6TagLib4RIFF4AIFF10Properties4readEPNS1_4FileE
_ZN6TagLib4RIFF4AIFF10PropertiesC1EPNS1_4FileENS_15AudioProperties9ReadStyleE
_ZN6TagLib4RIFF4AIFF10PropertiesC1ERKNS_10ByteVectorENS_15AudioProperties9ReadStyleE
_ZN6TagLib4RIFF4AIFF10PropertiesC2EPNS1_4FileENS_15AudioProperties9ReadStyleE
_ZN6TagLib4RIFF4AIFF10PropertiesC2ERKNS_10ByteVectorENS_15AudioProperties9ReadStyleE
_ZN6TagLib4RIFF4AIFF10PropertiesD0Ev
_ZN6TagLib4RIFF4AIFF10PropertiesD1Ev
_ZN6TagLib4RIFF4AIFF10PropertiesD2Ev
_ZN6TagLib4RIFF4AIFF4File13setPropertiesERKNS_11PropertyMapE
_ZN6TagLib4RIFF4AIFF4File27removeUnsupportedPropertiesERKNS_10StringListE
_ZN6TagLib4RIFF4AIFF4File4readEb
_ZN6TagLib4RIFF4AIFF4File4saveEv
_ZN6TagLib4RIFF4AIFF4FileC1ENS_8FileNameEbNS_15AudioProperties9ReadStyleE
_ZN6TagLib4RIFF4AIFF4FileC1EPNS_8IOStreamEbNS_15AudioProperties9ReadStyleE
_ZN6TagLib4RIFF4AIFF4FileC2ENS_8FileNameEbNS_15AudioProperties9ReadStyleE
_ZN6TagLib4RIFF4AIFF4FileC2EPNS_8IOStreamEbNS_15AudioProperties9ReadStyleE
_ZN6TagLib4RIFF4AIFF4FileD0Ev
_ZN6TagLib4RIFF4AIFF4FileD1Ev
_ZN6TagLib4RIFF4AIFF4FileD2Ev
_ZN6TagLib4RIFF4File10writeChunkERKNS_10ByteVectorES4_mm
_ZN6TagLib4RIFF4File11removeChunkERKNS_10ByteVectorE
_ZN6TagLib4RIFF4File11removeChunkEj
_ZN6TagLib4RIFF4File12setChunkDataERKNS_10ByteVectorES4_
_ZN6TagLib4RIFF4File12setChunkDataERKNS_10ByteVectorES4_b
_ZN6TagLib4RIFF4File12setChunkDataEjRKNS_10ByteVectorE
_ZN6TagLib4RIFF4File16updateGlobalSizeEv
_ZN6TagLib4RIFF4File4readEv
_ZN6TagLib4RIFF4File9chunkDataEj
_ZN6TagLib4RIFF4FileC1ENS_8FileNameENS1_10EndiannessE
_ZN6TagLib4RIFF4FileC1EPNS_8IOStreamENS1_10EndiannessE
_ZN6TagLib4RIFF4FileC2ENS_8FileNameENS1_10EndiannessE
_ZN6TagLib4RIFF4FileC2EPNS_8IOStreamENS1_10EndiannessE
_ZN6TagLib4RIFF4FileD0Ev
_ZN6TagLib4RIFF4FileD1Ev
_ZN6TagLib4RIFF4FileD2Ev
_ZN6TagLib4RIFF4Info13StringHandlerC1Ev
_ZN6TagLib4RIFF4Info13StringHandlerC2Ev
_ZN6TagLib4RIFF4Info13StringHandlerD1Ev
_ZN6TagLib4RIFF4Info13StringHandlerD2Ev
_ZN6TagLib4RIFF4Info3Tag10setCommentERKNS_6StringE
_ZN6TagLib4RIFF4Info3Tag11removeFieldERKNS_10ByteVectorE
_ZN6TagLib4RIFF4Info3Tag12setFieldTextERKNS_10ByteVectorERKNS_6StringE
_ZN6TagLib4RIFF4Info3Tag16setStringHandlerEPKNS1_13StringHandlerE
_ZN6TagLib4RIFF4Info3Tag5parseERKNS_10ByteVectorE
_ZN6TagLib4RIFF4Info3Tag7setYearEj
_ZN6TagLib4RIFF4Info3Tag8setAlbumERKNS_6StringE
_ZN6TagLib4RIFF4Info3Tag8setGenreERKNS_6StringE
_ZN6TagLib4RIFF4Info3Tag8setTitleERKNS_6StringE
_ZN6TagLib4RIFF4Info3Tag8setTrackEj
_ZN6TagLib4RIFF4Info3Tag9setArtistERKNS_6StringE
_ZN6TagLib4RIFF4Info3TagC1ERKNS_10ByteVectorE
_ZN6TagLib4RIFF4Info3TagC1Ev
_ZN6TagLib4RIFF4Info3TagC2ERKNS_10ByteVectorE
_ZN6TagLib4RIFF4Info3TagC2Ev
_ZN6TagLib4RIFF4Info3TagD0Ev
_ZN6TagLib4RIFF4Info3TagD1Ev
_ZN6TagLib4RIFF4Info3TagD2Ev
_ZN6TagLib5ID3v110genreIndexERKNS_6StringE
_ZN6TagLib5ID3v113StringHandlerC1Ev
_ZN6TagLib5ID3v113StringHandlerC2Ev
_ZN6TagLib5ID3v13Tag10setCommentERKNS_6StringE
_ZN6TagLib5ID3v13Tag14fileIdentifierEv
_ZN6TagLib5ID3v13Tag14setGenreNumberEj
_ZN6TagLib5ID3v13Tag16setStringHandlerEPKNS0_13StringHandlerE
_ZN6TagLib5ID3v13Tag4readEv
_ZN6TagLib5ID3v13Tag5parseERKNS_10ByteVectorE
_ZN6TagLib5ID3v13Tag7setYearEj
_ZN6TagLib5ID3v13Tag8setAlbumERKNS_6StringE
_ZN6TagLib5ID3v13Tag8setGenreERKNS_6StringE
_ZN6TagLib5ID3v13Tag8setTitleERKNS_6StringE
_ZN6TagLib5ID3v13Tag8setTrackEj
_ZN6TagLib5ID3v13Tag9setArtistERKNS_6StringE
_ZN6TagLib5ID3v13TagC1EPNS_4FileEl
_ZN6TagLib5ID3v13TagC1Ev
_ZN6TagLib5ID3v13TagC2EPNS_4FileEl
_ZN6TagLib5ID3v13TagC2Ev
_ZN6TagLib5ID3v13TagD0Ev
_ZN6TagLib5ID3v13TagD1Ev
_ZN6TagLib5ID3v13TagD2Ev
_ZN6TagLib5ID3v15genreEi
_ZN6TagLib5ID3v18genreMapEv
_ZN6TagLib5ID3v19genreListEv
_ZN6TagLib5ID3v212ChapterFrame10setEndTimeERKj
_ZN6TagLib5ID3v212ChapterFrame11parseFieldsERKNS_10ByteVectorE
_ZN6TagLib5ID3v212ChapterFrame12setElementIDERKNS_10ByteVectorE
_ZN6TagLib5ID3v212ChapterFrame12setEndOffsetERKj
_ZN6TagLib5ID3v212ChapterFrame12setStartTimeERKj
_ZN6TagLib5ID3v212ChapterFrame14setStartOffsetERKj
_ZN6TagLib5ID3v212ChapterFrame15findByElementIDEPKNS0_3TagERKNS_10ByteVectorE
_ZN6TagLib5ID3v212ChapterFrame16addEmbeddedFrameEPNS0_5FrameE
_ZN6TagLib5ID3v212ChapterFrame19removeEmbeddedFrameEPNS0_5FrameEb
_ZN6TagLib5ID3v212ChapterFrame20removeEmbeddedFramesERKNS_10ByteVectorE
_ZN6TagLib5ID3v212ChapterFrameC1EPKNS0_6HeaderERKNS_10ByteVectorE
_ZN6TagLib5ID3v212ChapterFrameC1EPKNS0_6HeaderERKNS_10ByteVectorEPNS0_5Frame6HeaderE
_ZN6TagLib5ID3v212ChapterFrameC1ERKNS_10ByteVectorEjjjjRKNS_4ListIPNS0_5FrameEEE
_ZN6TagLib5ID3v212ChapterFrameC2EPKNS0_6HeaderERKNS_10ByteVectorE
_ZN6TagLib5ID3v212ChapterFrameC2EPKNS0_6HeaderERKNS_10ByteVectorEPNS0_5Frame6HeaderE
_ZN6TagLib5ID3v212ChapterFrameC2ERKNS_10ByteVectorEjjjjRKNS_4ListIPNS0_5FrameEEE
_ZN6TagLib5ID3v212ChapterFrameD0Ev
_ZN6TagLib5ID3v212ChapterFrameD1Ev
_ZN6TagLib5ID3v212ChapterFrameD2Ev
_ZN6TagLib5ID3v212FrameFactory22setDefaultTextEncodingENS_6String4TypeE
_ZN6TagLib5ID3v212FrameFactory7factoryE DATA
_ZN6TagLib5ID3v212FrameFactory8instanceEv
_ZN6TagLib5ID3v212FrameFactoryC1Ev
_ZN6TagLib5ID3v212FrameFactoryC2Ev
_ZN6TagLib5ID3v212FrameFactoryD0Ev
_ZN6TagLib5ID3v212FrameFactoryD1Ev
_ZN6TagLib5ID3v212FrameFactoryD2Ev
_ZN6TagLib5ID3v212PodcastFrame11parseFieldsERKNS_10ByteVectorE
_ZN6TagLib5ID3v212PodcastFrameC1ERKNS_10ByteVectorEPNS0_5Frame6HeaderE
_ZN6TagLib5ID3v212PodcastFrameC1Ev
_ZN6TagLib5ID3v212PodcastFrameC2ERKNS_10ByteVectorEPNS0_5Frame6HeaderE
_ZN6TagLib5ID3v212PodcastFrameC2Ev
_ZN6TagLib5ID3v212PodcastFrameD0Ev
_ZN6TagLib5ID3v212PodcastFrameD1Ev
_ZN6TagLib5ID3v212PodcastFrameD2Ev
_ZN6TagLib5ID3v212PrivateFrame11parseFieldsERKNS_10ByteVectorE
_ZN6TagLib5ID3v212PrivateFrame7setDataERKNS_10ByteVectorE
_ZN6TagLib5ID3v212PrivateFrame8setOwnerERKNS_6StringE
_ZN6TagLib5ID3v212PrivateFrameC1ERKNS_10ByteVectorE
_ZN6TagLib5ID3v212PrivateFrameC1ERKNS_10ByteVectorEPNS0_5Frame6HeaderE
_ZN6TagLib5ID3v212PrivateFrameC1Ev
_ZN6TagLib5ID3v212PrivateFrameC2ERKNS_10ByteVectorE
_ZN6TagLib5ID3v212PrivateFrameC2ERKNS_10ByteVectorEPNS0_5Frame6HeaderE
_ZN6TagLib5ID3v212PrivateFrameC2Ev
_ZN6TagLib5ID3v212PrivateFrameD0Ev
_ZN6TagLib5ID3v212PrivateFrameD1Ev
_ZN6TagLib5ID3v212PrivateFrameD2Ev
_ZN6TagLib5ID3v212UnknownFrame11parseFieldsERKNS_10ByteVectorE
_ZN6TagLib5ID3v212UnknownFrameC1ERKNS_10ByteVectorE
_ZN6TagLib5ID3v212UnknownFrameC1ERKNS_10ByteVectorEPNS0_5Frame6HeaderE
_ZN6TagLib5ID3v212UnknownFrameC2ERKNS_10ByteVectorE
_ZN6TagLib5ID3v212UnknownFrameC2ERKNS_10ByteVectorEPNS0_5Frame6HeaderE
_ZN6TagLib5ID3v212UnknownFrameD0Ev
_ZN6TagLib5ID3v212UnknownFrameD1Ev
_ZN6TagLib5ID3v212UnknownFrameD2Ev
_ZN6TagLib5ID3v212UrlLinkFrame11parseFieldsERKNS_10ByteVectorE
_ZN6TagLib5ID3v212UrlLinkFrame6setUrlERKNS_6StringE
_ZN6TagLib5ID3v212UrlLinkFrame7setTextERKNS_6StringE
_ZN6TagLib5ID3v212UrlLinkFrameC1ERKNS_10ByteVectorE
_ZN6TagLib5ID3v212UrlLinkFrameC1ERKNS_10ByteVectorEPNS0_5Frame6HeaderE
_ZN6TagLib5ID3v212UrlLinkFrameC2ERKNS_10ByteVectorE
_ZN6TagLib5ID3v212UrlLinkFrameC2ERKNS_10ByteVectorEPNS0_5Frame6HeaderE
_ZN6TagLib5ID3v212UrlLinkFrameD0Ev
_ZN6TagLib5ID3v212UrlLinkFrameD1Ev
_ZN6TagLib5ID3v212UrlLinkFrameD2Ev
_ZN6TagLib5ID3v213CommentsFrame11parseFieldsERKNS_10ByteVectorE
_ZN6TagLib5ID3v213CommentsFrame11setLanguageERKNS_10ByteVectorE
_ZN6TagLib5ID3v213CommentsFrame14setDescriptionERKNS_6StringE
_ZN6TagLib5ID3v213CommentsFrame15setTextEncodingENS_6String4TypeE
_ZN6TagLib5ID3v213CommentsFrame17findByDescriptionEPKNS0_3TagERKNS_6StringE
_ZN6TagLib5ID3v213CommentsFrame7setTextERKNS_6StringE
_ZN6TagLib5ID3v213CommentsFrameC1ENS_6String4TypeE
_ZN6TagLib5ID3v213CommentsFrameC1ERKNS_10ByteVectorE
_ZN6TagLib5ID3v213CommentsFrameC1ERKNS_10ByteVectorEPNS0_5Frame6HeaderE
_ZN6TagLib5ID3v213CommentsFrameC2ENS_6String4TypeE
_ZN6TagLib5ID3v213CommentsFrameC2ERKNS_10ByteVectorE
_ZN6TagLib5ID3v213CommentsFrameC2ERKNS_10ByteVectorEPNS0_5Frame6HeaderE
_ZN6TagLib5ID3v213CommentsFrameD0Ev
_ZN6TagLib5ID3v213CommentsFrameD1Ev
_ZN6TagLib5ID3v213CommentsFrameD2Ev
_ZN6TagLib5ID3v214ExtendedHeader5parseERKNS_10ByteVectorE
_ZN6TagLib5ID3v214ExtendedHeader7setDataERKNS_10ByteVectorE
_ZN6TagLib5ID3v214ExtendedHeaderC1Ev
_ZN6TagLib5ID3v214ExtendedHeaderC2Ev
_ZN6TagLib5ID3v214ExtendedHeaderD0Ev
_ZN6TagLib5ID3v214ExtendedHeaderD1Ev
_ZN6TagLib5ID3v214ExtendedHeaderD2Ev
_ZN6TagLib5ID3v214OwnershipFrame11parseFieldsERKNS_10ByteVectorE
_ZN6TagLib5ID3v214OwnershipFrame12setPricePaidERKNS_6StringE
_ZN6TagLib5ID3v214OwnershipFrame15setTextEncodingENS_6String4TypeE
_ZN6TagLib5ID3v214OwnershipFrame16setDatePurchasedERKNS_6StringE
_ZN6TagLib5ID3v214OwnershipFrame9setSellerERKNS_6StringE
_ZN6TagLib5ID3v214OwnershipFrameC1ENS_6String4TypeE
_ZN6TagLib5ID3v214OwnershipFrameC1ERKNS_10ByteVectorE
_ZN6TagLib5ID3v214OwnershipFrameC1ERKNS_10ByteVectorEPNS0_5Frame6HeaderE
_ZN6TagLib5ID3v214OwnershipFrameC2ENS_6String4TypeE
_ZN6TagLib5ID3v214OwnershipFrameC2ERKNS_10ByteVectorE
_ZN6TagLib5ID3v214OwnershipFrameC2ERKNS_10ByteVectorEPNS0_5Frame6HeaderE
_ZN6TagLib5ID3v214OwnershipFrameD0Ev
_ZN6TagLib5ID3v214OwnershipFrameD1Ev
_ZN6TagLib5ID3v214OwnershipFrameD2Ev
_ZN6TagLib5ID3v216UserUrlLinkFrame11parseFieldsERKNS_10ByteVectorE
_ZN6TagLib5ID3v216UserUrlLinkFrame14setDescriptionERKNS_6StringE
_ZN6TagLib5ID3v216UserUrlLinkFrame15setTextEncodingENS_6String4TypeE
_ZN6TagLib5ID3v216UserUrlLinkFrame4findEPNS0_3TagERKNS_6StringE
_ZN6TagLib5ID3v216UserUrlLinkFrameC1ENS_6String4TypeE
_ZN6TagLib5ID3v216UserUrlLinkFrameC1ERKNS_10ByteVectorE
_ZN6TagLib5ID3v216UserUrlLinkFrameC1ERKNS_10ByteVectorEPNS0_5Frame6HeaderE
_ZN6TagLib5ID3v216UserUrlLinkFrameC2ENS_6String4TypeE
_ZN6TagLib5ID3v216UserUrlLinkFrameC2ERKNS_10ByteVectorE
_ZN6TagLib5ID3v216UserUrlLinkFrameC2ERKNS_10ByteVectorEPNS0_5Frame6HeaderE
_ZN6TagLib5ID3v216UserUrlLinkFrameD0Ev
_ZN6TagLib5ID3v216UserUrlLinkFrameD1Ev
_ZN6TagLib5ID3v216UserUrlLinkFrameD2Ev
_ZN6TagLib5ID3v218PopularimeterFrame10setCounterEj
_ZN6TagLib5ID3v218PopularimeterFrame11parseFieldsERKNS_10ByteVectorE
_ZN6TagLib5ID3v218PopularimeterFrame8setEmailERKNS_6StringE
_ZN6TagLib5ID3v218PopularimeterFrame9setRatingEi
_ZN6TagLib5ID3v218PopularimeterFrameC1ERKNS_10ByteVectorE
_ZN6TagLib5ID3v218PopularimeterFrameC1ERKNS_10ByteVectorEPNS0_5Frame6HeaderE
_ZN6TagLib5ID3v218PopularimeterFrameC1Ev
_ZN6TagLib5ID3v218PopularimeterFrameC2ERKNS_10ByteVectorE
_ZN6TagLib5ID3v218PopularimeterFrameC2ERKNS_10ByteVectorEPNS0_5Frame6HeaderE
_ZN6TagLib5ID3v218PopularimeterFrameC2Ev
_ZN6TagLib5ID3v218PopularimeterFrameD0Ev
_ZN6TagLib5ID3v218PopularimeterFrameD1Ev
_ZN6TagLib5ID3v218PopularimeterFrameD2Ev
_ZN6TagLib5ID3v219Latin1StringHandlerC1Ev
_ZN6TagLib5ID3v219Latin1StringHandlerC2Ev
_ZN6TagLib5ID3v219Latin1StringHandlerD0Ev
_ZN6TagLib5ID3v219Latin1StringHandlerD1Ev
_ZN6TagLib5ID3v219Latin1StringHandlerD2Ev
_ZN6TagLib5ID3v219RelativeVolumeFrame11parseFieldsERKNS_10ByteVectorE
_ZN6TagLib5ID3v219RelativeVolumeFrame13setPeakVolumeERKNS1_10PeakVolumeE
_ZN6TagLib5ID3v219RelativeVolumeFrame13setPeakVolumeERKNS1_10PeakVolumeENS1_11ChannelTypeE
_ZN6TagLib5ID3v219RelativeVolumeFrame14setChannelTypeENS1_11ChannelTypeE
_ZN6TagLib5ID3v219RelativeVolumeFrame17setIdentificationERKNS_6StringE
_ZN6TagLib5ID3v219RelativeVolumeFrame19setVolumeAdjustmentEf
_ZN6TagLib5ID3v219RelativeVolumeFrame19setVolumeAdjustmentEfNS1_11ChannelTypeE
_ZN6TagLib5ID3v219RelativeVolumeFrame24setVolumeAdjustmentIndexEs
_ZN6TagLib5ID3v219RelativeVolumeFrame24setVolumeAdjustmentIndexEsNS1_11ChannelTypeE
_ZN6TagLib5ID3v219RelativeVolumeFrameC1ERKNS_10ByteVectorE
_ZN6TagLib5ID3v219RelativeVolumeFrameC1ERKNS_10ByteVectorEPNS0_5Frame6HeaderE
_ZN6TagLib5ID3v219RelativeVolumeFrameC1Ev
_ZN6TagLib5ID3v219RelativeVolumeFrameC2ERKNS_10ByteVectorE
_ZN6TagLib5ID3v219RelativeVolumeFrameC2ERKNS_10ByteVectorEPNS0_5Frame6HeaderE
_ZN6TagLib5ID3v219RelativeVolumeFrameC2Ev
_ZN6TagLib5ID3v219RelativeVolumeFrameD0Ev
_ZN6TagLib5ID3v219RelativeVolumeFrameD1Ev
_ZN6TagLib5ID3v219RelativeVolumeFrameD2Ev
_ZN6TagLib5ID3v220AttachedPictureFrame10setPictureERKNS_10ByteVectorE
_ZN6TagLib5ID3v220AttachedPictureFrame11parseFieldsERKNS_10ByteVectorE
_ZN6TagLib5ID3v220AttachedPictureFrame11setMimeTypeERKNS_6StringE
_ZN6TagLib5ID3v220AttachedPictureFrame14setDescriptionERKNS_6StringE
_ZN6TagLib5ID3v220AttachedPictureFrame15setTextEncodingENS_6String4TypeE
_ZN6TagLib5ID3v220AttachedPictureFrame7setTypeENS1_4TypeE
_ZN6TagLib5ID3v220AttachedPictureFrameC1ERKNS_10ByteVectorE
_ZN6TagLib5ID3v220AttachedPictureFrameC1ERKNS_10ByteVectorEPNS0_5Frame6HeaderE
_ZN6TagLib5ID3v220AttachedPictureFrameC1Ev
_ZN6TagLib5ID3v220AttachedPictureFrameC2ERKNS_10ByteVectorE
_ZN6TagLib5ID3v220AttachedPictureFrameC2ERKNS_10ByteVectorEPNS0_5Frame6HeaderE
_ZN6TagLib5ID3v220AttachedPictureFrameC2Ev
_ZN6TagLib5ID3v220AttachedPictureFrameD0Ev
_ZN6TagLib5ID3v220AttachedPictureFrameD1Ev
_ZN6TagLib5ID3v220AttachedPictureFrameD2Ev
_ZN6TagLib5ID3v220TableOfContentsFrame11parseFieldsERKNS_10ByteVectorE
_ZN6TagLib5ID3v220TableOfContentsFrame12findTopLevelEPKNS0_3TagE
_ZN6TagLib5ID3v220TableOfContentsFrame12setElementIDERKNS_10ByteVectorE
_ZN6TagLib5ID3v220TableOfContentsFrame12setIsOrderedERKb
_ZN6TagLib5ID3v220TableOfContentsFrame13setIsTopLevelERKb
_ZN6TagLib5ID3v220TableOfContentsFrame15addChildElementERKNS_10ByteVectorE
_ZN6TagLib5ID3v220TableOfContentsFrame15findByElementIDEPKNS0_3TagERKNS_10ByteVectorE
_ZN6TagLib5ID3v220TableOfContentsFrame16addEmbeddedFrameEPNS0_5FrameE
_ZN6TagLib5ID3v220TableOfContentsFrame16setChildElementsERKNS_14ByteVectorListE
_ZN6TagLib5ID3v220TableOfContentsFrame18removeChildElementERKNS_10ByteVectorE
_ZN6TagLib5ID3v220TableOfContentsFrame19removeEmbeddedFrameEPNS0_5FrameEb
_ZN6TagLib5ID3v220TableOfContentsFrame20removeEmbeddedFramesERKNS_10ByteVectorE
_ZN6TagLib5ID3v220TableOfContentsFrameC1EPKNS0_6HeaderERKNS_10ByteVectorE
_ZN6TagLib5ID3v220TableOfContentsFrameC1EPKNS0_6HeaderERKNS_10ByteVectorEPNS0_5Frame6HeaderE
_ZN6TagLib5ID3v220TableOfContentsFrameC1ERKNS_10ByteVectorERKNS_14ByteVectorListERKNS_4ListIPNS0_5FrameEEE
_ZN6TagLib5ID3v220TableOfContentsFrameC2EPKNS0_6HeaderERKNS_10ByteVectorE
_ZN6TagLib5ID3v220TableOfContentsFrameC2EPKNS0_6HeaderERKNS_10ByteVectorEPNS0_5Frame6HeaderE
_ZN6TagLib5ID3v220TableOfContentsFrameC2ERKNS_10ByteVectorERKNS_14ByteVectorListERKNS_4ListIPNS0_5FrameEEE
_ZN6TagLib5ID3v220TableOfContentsFrameD0Ev
_ZN6TagLib5ID3v220TableOfContentsFrameD1Ev
_ZN6TagLib5ID3v220TableOfContentsFrameD2Ev
_ZN6TagLib5ID3v221EventTimingCodesFrame11parseFieldsERKNS_10ByteVectorE
_ZN6TagLib5ID3v221EventTimingCodesFrame16setSynchedEventsERKNS_4ListINS1_12SynchedEventEEE
_ZN6TagLib5ID3v221EventTimingCodesFrame18setTimestampFormatENS1_15TimestampFormatE
_ZN6TagLib5ID3v221EventTimingCodesFrameC1ERKNS_10ByteVectorE
_ZN6TagLib5ID3v221EventTimingCodesFrameC1ERKNS_10ByteVectorEPNS0_5Frame6HeaderE
_ZN6TagLib5ID3v221EventTimingCodesFrameC1Ev
_ZN6TagLib5ID3v221EventTimingCodesFrameC2ERKNS_10ByteVectorE
_ZN6TagLib5ID3v221EventTimingCodesFrameC2ERKNS_10ByteVectorEPNS0_5Frame6HeaderE
_ZN6TagLib5ID3v221EventTimingCodesFrameC2Ev
_ZN6TagLib5ID3v221EventTimingCodesFrameD0Ev
_ZN6TagLib5ID3v221EventTimingCodesFrameD1Ev
_ZN6TagLib5ID3v221EventTimingCodesFrameD2Ev
_ZN6TagLib5ID3v223AttachedPictureFrameV2211parseFieldsERKNS_10ByteVectorE
_ZN6TagLib5ID3v223AttachedPictureFrameV22C1ERKNS_10ByteVectorEPNS0_5Frame6HeaderE
_ZN6TagLib5ID3v223AttachedPictureFrameV22C2ERKNS_10ByteVectorEPNS0_5Frame6HeaderE
_ZN6TagLib5ID3v223SynchronizedLyricsFrame11parseFieldsERKNS_10ByteVectorE
_ZN6TagLib5ID3v223SynchronizedLyricsFrame11setLanguageERKNS_10ByteVectorE
_ZN6TagLib5ID3v223SynchronizedLyricsFrame14setDescriptionERKNS_6StringE
_ZN6TagLib5ID3v223SynchronizedLyricsFrame14setSynchedTextERKNS_4ListINS1_11SynchedTextEEE
_ZN6TagLib5ID3v223SynchronizedLyricsFrame15setTextEncodingENS_6String4TypeE
_ZN6TagLib5ID3v223SynchronizedLyricsFrame18setTimestampFormatENS1_15TimestampFormatE
_ZN6TagLib5ID3v223SynchronizedLyricsFrame7setTypeENS1_4TypeE
_ZN6TagLib5ID3v223SynchronizedLyricsFrameC1ENS_6String4TypeE
_ZN6TagLib5ID3v223SynchronizedLyricsFrameC1ERKNS_10ByteVectorE
_ZN6TagLib5ID3v223SynchronizedLyricsFrameC1ERKNS_10ByteVectorEPNS0_5Frame6HeaderE
_ZN6TagLib5ID3v223SynchronizedLyricsFrameC2ENS_6String4TypeE
_ZN6TagLib5ID3v223SynchronizedLyricsFrameC2ERKNS_10ByteVectorE
_ZN6TagLib5ID3v223SynchronizedLyricsFrameC2ERKNS_10ByteVectorEPNS0_5Frame6HeaderE
_ZN6TagLib5ID3v223SynchronizedLyricsFrameD0Ev
_ZN6TagLib5ID3v223SynchronizedLyricsFrameD1Ev
_ZN6TagLib5ID3v223SynchronizedLyricsFrameD2Ev
_ZN6TagLib5ID3v223TextIdentificationFrame11parseFieldsERKNS_10ByteVectorE
_ZN6TagLib5ID3v223TextIdentificationFrame15createTIPLFrameERKNS_11PropertyMapE
_ZN6TagLib5ID3v223TextIdentificationFrame15createTMCLFrameERKNS_11PropertyMapE
_ZN6TagLib5ID3v223TextIdentificationFrame15setTextEncodingENS_6String4TypeE
_ZN6TagLib5ID3v223TextIdentificationFrame17involvedPeopleMapEv
_ZN6TagLib5ID3v223TextIdentificationFrame7setTextERKNS_10StringListE
_ZN6TagLib5ID3v223TextIdentificationFrame7setTextERKNS_6StringE
_ZN6TagLib5ID3v223TextIdentificationFrameC1ERKNS_10ByteVectorE
_ZN6TagLib5ID3v223TextIdentificationFrameC1ERKNS_10ByteVectorENS_6String4TypeE
_ZN6TagLib5ID3v223TextIdentificationFrameC1ERKNS_10ByteVectorEPNS0_5Frame6HeaderE
_ZN6TagLib5ID3v223TextIdentificationFrameC2ERKNS_10ByteVectorE
_ZN6TagLib5ID3v223TextIdentificationFrameC2ERKNS_10ByteVectorENS_6String4TypeE
_ZN6TagLib5ID3v223TextIdentificationFrameC2ERKNS_10ByteVectorEPNS0_5Frame6HeaderE
_ZN6TagLib5ID3v223TextIdentificationFrameD0Ev
_ZN6TagLib5ID3v223TextIdentificationFrameD1Ev
_ZN6TagLib5ID3v223TextIdentificationFrameD2Ev
_ZN6TagLib5ID3v225UniqueFileIdentifierFrame11findByOwnerEPKNS0_3TagERKNS_6StringE
_ZN6TagLib5ID3v225UniqueFileIdentifierFrame11parseFieldsERKNS_10ByteVectorE
_ZN6TagLib5ID3v225UniqueFileIdentifierFrame13setIdentifierERKNS_10ByteVectorE
_ZN6TagLib5ID3v225UniqueFileIdentifierFrame8setOwnerERKNS_6StringE
_ZN6TagLib5ID3v225UniqueFileIdentifierFrameC1ERKNS_10ByteVectorE
_ZN6TagLib5ID3v225UniqueFileIdentifierFrameC1ERKNS_10ByteVectorEPNS0_5Frame6HeaderE
_ZN6TagLib5ID3v225UniqueFileIdentifierFrameC1ERKNS_6StringERKNS_10ByteVectorE
_ZN6TagLib5ID3v225UniqueFileIdentifierFrameC2ERKNS_10ByteVectorE
_ZN6TagLib5ID3v225UniqueFileIdentifierFrameC2ERKNS_10ByteVectorEPNS0_5Frame6HeaderE
_ZN6TagLib5ID3v225UniqueFileIdentifierFrameC2ERKNS_6StringERKNS_10ByteVectorE
_ZN6TagLib5ID3v225UniqueFileIdentifierFrameD0Ev
_ZN6TagLib5ID3v225UniqueFileIdentifierFrameD1Ev
_ZN6TagLib5ID3v225UniqueFileIdentifierFrameD2Ev
_ZN6TagLib5ID3v225UnsynchronizedLyricsFrame11parseFieldsERKNS_10ByteVectorE
_ZN6TagLib5ID3v225UnsynchronizedLyricsFrame11setLanguageERKNS_10ByteVectorE
_ZN6TagLib5ID3v225UnsynchronizedLyricsFrame14setDescriptionERKNS_6StringE
_ZN6TagLib5ID3v225UnsynchronizedLyricsFrame15setTextEncodingENS_6String4TypeE
_ZN6TagLib5ID3v225UnsynchronizedLyricsFrame17findByDescriptionEPKNS0_3TagERKNS_6StringE
_ZN6TagLib5ID3v225UnsynchronizedLyricsFrame7setTextERKNS_6StringE
_ZN6TagLib5ID3v225UnsynchronizedLyricsFrameC1ENS_6String4TypeE
_ZN6TagLib5ID3v225UnsynchronizedLyricsFrameC1ERKNS_10ByteVectorE
_ZN6TagLib5ID3v225UnsynchronizedLyricsFrameC1ERKNS_10ByteVectorEPNS0_5Frame6HeaderE
_ZN6TagLib5ID3v225UnsynchronizedLyricsFrameC2ENS_6String4TypeE
_ZN6TagLib5ID3v225UnsynchronizedLyricsFrameC2ERKNS_10ByteVectorE
_ZN6TagLib5ID3v225UnsynchronizedLyricsFrameC2ERKNS_10ByteVectorEPNS0_5Frame6HeaderE
_ZN6TagLib5ID3v225UnsynchronizedLyricsFrameD0Ev
_ZN6TagLib5ID3v225UnsynchronizedLyricsFrameD1Ev
_ZN6TagLib5ID3v225UnsynchronizedLyricsFrameD2Ev
_ZN6TagLib5ID3v227UserTextIdentificationFrame11checkFieldsEv
_ZN6TagLib5ID3v227UserTextIdentificationFrame14setDescriptionERKNS_6StringE
_ZN6TagLib5ID3v227UserTextIdentificationFrame4findEPNS0_3TagERKNS_6StringE
_ZN6TagLib5ID3v227UserTextIdentificationFrame7setTextERKNS_10StringListE
_ZN6TagLib5ID3v227UserTextIdentificationFrame7setTextERKNS_6StringE
_ZN6TagLib5ID3v227UserTextIdentificationFrameC1ENS_6String4TypeE
_ZN6TagLib5ID3v227UserTextIdentificationFrameC1ERKNS_10ByteVectorE
_ZN6TagLib5ID3v227UserTextIdentificationFrameC1ERKNS_10ByteVectorEPNS0_5Frame6HeaderE
_ZN6TagLib5ID3v227UserTextIdentificationFrameC1ERKNS_6StringERKNS_10StringListENS2_4TypeE
_ZN6TagLib5ID3v227UserTextIdentificationFrameC2ENS_6String4TypeE
_ZN6TagLib5ID3v227UserTextIdentificationFrameC2ERKNS_10ByteVectorE
_ZN6TagLib5ID3v227UserTextIdentificationFrameC2ERKNS_10ByteVectorEPNS0_5Frame6HeaderE
_ZN6TagLib5ID3v227UserTextIdentificationFrameC2ERKNS_6StringERKNS_10StringListENS2_4TypeE
_ZN6TagLib5ID3v230GeneralEncapsulatedObjectFrame11parseFieldsERKNS_10ByteVectorE
_ZN6TagLib5ID3v230GeneralEncapsulatedObjectFrame11setFileNameERKNS_6StringE
_ZN6TagLib5ID3v230GeneralEncapsulatedObjectFrame11setMimeTypeERKNS_6StringE
_ZN6TagLib5ID3v230GeneralEncapsulatedObjectFrame14setDescriptionERKNS_6StringE
_ZN6TagLib5ID3v230GeneralEncapsulatedObjectFrame15setTextEncodingENS_6String4TypeE
_ZN6TagLib5ID3v230GeneralEncapsulatedObjectFrame9setObjectERKNS_10ByteVectorE
_ZN6TagLib5ID3v230GeneralEncapsulatedObjectFrameC1ERKNS_10ByteVectorE
_ZN6TagLib5ID3v230GeneralEncapsulatedObjectFrameC1ERKNS_10ByteVectorEPNS0_5Frame6HeaderE
_ZN6TagLib5ID3v230GeneralEncapsulatedObjectFrameC1Ev
_ZN6TagLib5ID3v230GeneralEncapsulatedObjectFrameC2ERKNS_10ByteVectorE
_ZN6TagLib5ID3v230GeneralEncapsulatedObjectFrameC2ERKNS_10ByteVectorEPNS0_5Frame6HeaderE
_ZN6TagLib5ID3v230GeneralEncapsulatedObjectFrameC2Ev
_ZN6TagLib5ID3v230GeneralEncapsulatedObjectFrameD0Ev
_ZN6TagLib5ID3v230GeneralEncapsulatedObjectFrameD1Ev
_ZN6TagLib5ID3v230GeneralEncapsulatedObjectFrameD2Ev
_ZN6TagLib5ID3v23Tag10setCommentERKNS_6StringE
_ZN6TagLib5ID3v23Tag11removeFrameEPNS0_5FrameEb
_ZN6TagLib5ID3v23Tag12removeFramesERKNS_10ByteVectorE
_ZN6TagLib5ID3v23Tag12setTextFrameERKNS_10ByteVectorERKNS_6StringE
_ZN6TagLib5ID3v23Tag13setPropertiesERKNS_11PropertyMapE
_ZN6TagLib5ID3v23Tag19latin1StringHandlerEv
_ZN6TagLib5ID3v23Tag22setLatin1StringHandlerEPKNS0_19Latin1StringHandlerE
_ZN6TagLib5ID3v23Tag27removeUnsupportedPropertiesERKNS_10StringListE
_ZN6TagLib5ID3v23Tag4readEv
_ZN6TagLib5ID3v23Tag5parseERKNS_10ByteVectorE
_ZN6TagLib5ID3v23Tag7setYearEj
_ZN6TagLib5ID3v23Tag8addFrameEPNS0_5FrameE
_ZN6TagLib5ID3v23Tag8setAlbumERKNS_6StringE
_ZN6TagLib5ID3v23Tag8setGenreERKNS_6StringE
_ZN6TagLib5ID3v23Tag8setTitleERKNS_6StringE
_ZN6TagLib5ID3v23Tag8setTrackEj
_ZN6TagLib5ID3v23Tag9setArtistERKNS_6StringE
_ZN6TagLib5ID3v23TagC1EPNS_4FileElPKNS0_12FrameFactoryE
_ZN6TagLib5ID3v23TagC1Ev
_ZN6TagLib5ID3v23TagC2EPNS_4FileElPKNS0_12FrameFactoryE
_ZN6TagLib5ID3v23TagC2Ev
_ZN6TagLib5ID3v23TagD0Ev
_ZN6TagLib5ID3v23TagD1Ev
_ZN6TagLib5ID3v23TagD2Ev
_ZN6TagLib5ID3v25Frame10headerSizeEj
_ZN6TagLib5ID3v25Frame10headerSizeEv
_ZN6TagLib5ID3v25Frame12frameIDToKeyERKNS_10ByteVectorE
_ZN6TagLib5ID3v25Frame12keyToFrameIDERKNS_6StringE
_ZN6TagLib5ID3v25Frame12lyricsPrefixE DATA
_ZN6TagLib5ID3v25Frame13checkEncodingERKNS_10StringListENS_6String4TypeE
_ZN6TagLib5ID3v25Frame13checkEncodingERKNS_10StringListENS_6String4TypeEj
_ZN6TagLib5ID3v25Frame13commentPrefixE DATA
_ZN6TagLib5ID3v25Frame13textDelimiterENS_6String4TypeE
_ZN6TagLib5ID3v25Frame15readStringFieldERKNS_10ByteVectorENS_6String4TypeEPi
_ZN6TagLib5ID3v25Frame15splitPropertiesERKNS_11PropertyMapERS2_S5_S5_
_ZN6TagLib5ID3v25Frame16instrumentPrefixE DATA
_ZN6TagLib5ID3v25Frame18createTextualFrameERKNS_6StringERKNS_10StringListE
_ZN6TagLib5ID3v25Frame5parseERKNS_10ByteVectorE
_ZN6TagLib5ID3v25Frame6Header10setFrameIDERKNS_10ByteVectorE
_ZN6TagLib5ID3v25Frame6Header10setVersionEj
_ZN6TagLib5ID3v25Frame6Header12setFrameSizeEj
_ZN6TagLib5ID3v25Frame6Header23setTagAlterPreservationEb
_ZN6TagLib5ID3v25Frame6Header4sizeEj
_ZN6TagLib5ID3v25Frame6Header4sizeEv
_ZN6TagLib5ID3v25Frame6Header7setDataERKNS_10ByteVectorEb
_ZN6TagLib5ID3v25Frame6Header7setDataERKNS_10ByteVectorEj
_ZN6TagLib5ID3v25Frame6HeaderC1ERKNS_10ByteVectorEb
_ZN6TagLib5ID3v25Frame6HeaderC1ERKNS_10ByteVectorEj
_ZN6TagLib5ID3v25Frame6HeaderC2ERKNS_10ByteVectorEb
_ZN6TagLib5ID3v25Frame6HeaderC2ERKNS_10ByteVectorEj
_ZN6TagLib5ID3v25Frame6HeaderD0Ev
_ZN6TagLib5ID3v25Frame6HeaderD1Ev
_ZN6TagLib5ID3v25Frame6HeaderD2Ev
_ZN6TagLib5ID3v25Frame7setDataERKNS_10ByteVectorE
_ZN6TagLib5ID3v25Frame7setTextERKNS_6StringE
_ZN6TagLib5ID3v25Frame9keyToTXXXERKNS_6StringE
_ZN6TagLib5ID3v25Frame9setHeaderEPNS1_6HeaderEb
_ZN6TagLib5ID3v25Frame9txxxToKeyERKNS_6StringE
_ZN6TagLib5ID3v25Frame9urlPrefixE DATA
_ZN6TagLib5ID3v25FrameC1EPNS1_6HeaderE
_ZN6TagLib5ID3v25FrameC1ERKNS_10ByteVectorE
_ZN6TagLib5ID3v25FrameC2EPNS1_6HeaderE
_ZN6TagLib5ID3v25FrameC2ERKNS_10ByteVectorE
_ZN6TagLib5ID3v25FrameD0Ev
_ZN6TagLib5ID3v25FrameD1Ev
_ZN6TagLib5ID3v25FrameD2Ev
_ZN6TagLib5ID3v26Footer4sizeEv
_ZN6TagLib5ID3v26FooterC1Ev
_ZN6TagLib5ID3v26FooterC2Ev
_ZN6TagLib5ID3v26FooterD0Ev
_ZN6TagLib5ID3v26FooterD1Ev
_ZN6TagLib5ID3v26FooterD2Ev
_ZN6TagLib5ID3v26Header10setTagSizeEj
_ZN6TagLib5ID3v26Header14fileIdentifierEv
_ZN6TagLib5ID3v26Header15setMajorVersionEj
_ZN6TagLib5ID3v26Header4sizeEv
_ZN6TagLib5ID3v26Header5parseERKNS_10ByteVectorE
_ZN6TagLib5ID3v26Header7setDataERKNS_10ByteVectorE
_ZN6TagLib5ID3v26HeaderC1ERKNS_10ByteVectorE
_ZN6TagLib5ID3v26HeaderC1Ev
_ZN6TagLib5ID3v26HeaderC2ERKNS_10ByteVectorE
_ZN6TagLib5ID3v26HeaderC2Ev
_ZN6TagLib5ID3v26HeaderD0Ev
_ZN6TagLib5ID3v26HeaderD1Ev
_ZN6TagLib5ID3v26HeaderD2Ev
_ZN6TagLib5ID3v29SynchData6decodeERKNS_10ByteVectorE
_ZN6TagLib5ID3v29SynchData6toUIntERKNS_10ByteVectorE
_ZN6TagLib5ID3v29SynchData8fromUIntEj
_ZN6TagLib6String14WCharByteOrderE DATA
_ZN6TagLib6String3endB5cxx11Ev
_ZN6TagLib6String4nullE DATA
_ZN6TagLib6String4swapERS0_
_ZN6TagLib6String5beginB5cxx11Ev
_ZN6TagLib6String5clearEv
_ZN6TagLib6String6appendERKS0_
_ZN6TagLib6String6detachEv
_ZN6TagLib6String6numberEi
_ZN6TagLib6StringC1EPKcNS0_4TypeE
_ZN6TagLib6StringC1EPKwNS0_4TypeE
_ZN6TagLib6StringC1ERKNS_10ByteVectorENS0_4TypeE
_ZN6TagLib6StringC1ERKNSt7__cxx1112basic_stringIcSt11char_traitsIcESaIcEEENS0_4TypeE
_ZN6TagLib6StringC1ERKNSt7__cxx1112basic_stringIwSt11char_traitsIwESaIwEEENS0_4TypeE
_ZN6TagLib6StringC1ERKS0_
_ZN6TagLib6StringC1EcNS0_4TypeE
_ZN6TagLib6StringC1Ev
_ZN6TagLib6StringC1EwNS0_4TypeE
_ZN6TagLib6StringC2EPKcNS0_4TypeE
_ZN6TagLib6StringC2EPKwNS0_4TypeE
_ZN6TagLib6StringC2ERKNS_10ByteVectorENS0_4TypeE
_ZN6TagLib6StringC2ERKNSt7__cxx1112basic_stringIcSt11char_traitsIcESaIcEEENS0_4TypeE
_ZN6TagLib6StringC2ERKNSt7__cxx1112basic_stringIwSt11char_traitsIwESaIwEEENS0_4TypeE
_ZN6TagLib6StringC2ERKS0_
_ZN6TagLib6StringC2EcNS0_4TypeE
_ZN6TagLib6StringC2Ev
_ZN6TagLib6StringC2EwNS0_4TypeE
_ZN6TagLib6StringD0Ev
_ZN6TagLib6StringD1Ev
_ZN6TagLib6StringD2Ev
_ZN6TagLib6StringaSEPKc
_ZN6TagLib6StringaSEPKw
_ZN6TagLib6StringaSERKNS_10ByteVectorE
_ZN6TagLib6StringaSERKNSt7__cxx1112basic_stringIcSt11char_traitsIcESaIcEEE
_ZN6TagLib6StringaSERKNSt7__cxx1112basic_stringIwSt11char_traitsIwESaIwEEE
_ZN6TagLib6StringaSERKS0_
_ZN6TagLib6StringaSEc
_ZN6TagLib6StringaSEw
_ZN6TagLib6StringixEi
_ZN6TagLib6StringpLEPKc
_ZN6TagLib6StringpLEPKw
_ZN6TagLib6StringpLERKS0_
_ZN6TagLib6StringpLEc
_ZN6TagLib6StringpLEw
_ZN6TagLib6Vorbis10Properties4readEPNS0_4FileE
_ZN6TagLib6Vorbis10PropertiesC1EPNS0_4FileENS_15AudioProperties9ReadStyleE
_ZN6TagLib6Vorbis10PropertiesC2EPNS0_4FileENS_15AudioProperties9ReadStyleE
_ZN6TagLib6Vorbis10PropertiesD0Ev
_ZN6TagLib6Vorbis10PropertiesD1Ev
_ZN6TagLib6Vorbis10PropertiesD2Ev
_ZN6TagLib6Vorbis4File13setPropertiesERKNS_11PropertyMapE
_ZN6TagLib6Vorbis4File4readEb
_ZN6TagLib6Vorbis4File4saveEv
_ZN6TagLib6Vorbis4FileC1ENS_8FileNameEbNS_15AudioProperties9ReadStyleE
_ZN6TagLib6Vorbis4FileC1EPNS_8IOStreamEbNS_15AudioProperties9ReadStyleE
_ZN6TagLib6Vorbis4FileC2ENS_8FileNameEbNS_15AudioProperties9ReadStyleE
_ZN6TagLib6Vorbis4FileC2EPNS_8IOStreamEbNS_15AudioProperties9ReadStyleE
_ZN6TagLib6Vorbis4FileD0Ev
_ZN6TagLib6Vorbis4FileD1Ev
_ZN6TagLib6Vorbis4FileD2Ev
_ZN6TagLib7FileRef19addFileTypeResolverEPKNS0_16FileTypeResolverE
_ZN6TagLib7FileRef21defaultFileExtensionsEv
_ZN6TagLib7FileRef4saveEv
_ZN6TagLib7FileRef4swapERS0_
_ZN6TagLib7FileRef6createENS_8FileNameEbNS_15AudioProperties9ReadStyleE
_ZN6TagLib7FileRefC1ENS_8FileNameEbNS_15AudioProperties9ReadStyleE
_ZN6TagLib7FileRefC1EPNS_4FileE
_ZN6TagLib7FileRefC1EPNS_8IOStreamEbNS_15AudioProperties9ReadStyleE
_ZN6TagLib7FileRefC1ERKS0_
_ZN6TagLib7FileRefC1Ev
_ZN6TagLib7FileRefC2ENS_8FileNameEbNS_15AudioProperties9ReadStyleE
_ZN6TagLib7FileRefC2EPNS_4FileE
_ZN6TagLib7FileRefC2EPNS_8IOStreamEbNS_15AudioProperties9ReadStyleE
_ZN6TagLib7FileRefC2ERKS0_
_ZN6TagLib7FileRefC2Ev
_ZN6TagLib7FileRefD0Ev
_ZN6TagLib7FileRefD1Ev
_ZN6TagLib7FileRefD2Ev
_ZN6TagLib7FileRefaSERKS0_
_ZN6TagLib7WavPack10Properties14seekFinalIndexEPNS0_4FileEl
_ZN6TagLib7WavPack10Properties4readEPNS0_4FileEl
_ZN6TagLib7WavPack10PropertiesC1EPNS0_4FileElNS_15AudioProperties9ReadStyleE
_ZN6TagLib7WavPack10PropertiesC1ERKNS_10ByteVectorElNS_15AudioProperties9ReadStyleE
_ZN6TagLib7WavPack10PropertiesC2EPNS0_4FileElNS_15AudioProperties9ReadStyleE
_ZN6TagLib7WavPack10PropertiesC2ERKNS_10ByteVectorElNS_15AudioProperties9ReadStyleE
_ZN6TagLib7WavPack10PropertiesD0Ev
_ZN6TagLib7WavPack10PropertiesD1Ev
_ZN6TagLib7WavPack10PropertiesD2Ev
_ZN6TagLib7WavPack4File13setPropertiesERKNS_11PropertyMapE
_ZN6TagLib7WavPack4File27removeUnsupportedPropertiesERKNS_10StringListE
_ZN6TagLib7WavPack4File4readEb
_ZN6TagLib7WavPack4File4saveEv
_ZN6TagLib7WavPack4File5stripEi
_ZN6TagLib7WavPack4File6APETagEb
_ZN6TagLib7WavPack4File8ID3v1TagEb
_ZN6TagLib7WavPack4FileC1ENS_8FileNameEbNS_15AudioProperties9ReadStyleE
_ZN6TagLib7WavPack4FileC1EPNS_8IOStreamEbNS_15AudioProperties9ReadStyleE
_ZN6TagLib7WavPack4FileC2ENS_8FileNameEbNS_15AudioProperties9ReadStyleE
_ZN6TagLib7WavPack4FileC2EPNS_8IOStreamEbNS_15AudioProperties9ReadStyleE
_ZN6TagLib7WavPack4FileD0Ev
_ZN6TagLib7WavPack4FileD1Ev
_ZN6TagLib7WavPack4FileD2Ev
_ZN6TagLib8FileNameC1EPKc
_ZN6TagLib8FileNameC1EPKw
_ZN6TagLib8FileNameC1ERKS0_
_ZN6TagLib8FileNameC2EPKc
_ZN6TagLib8FileNameC2EPKw
_ZN6TagLib8FileNameC2ERKS0_
_ZN6TagLib8IOStream5clearEv
_ZN6TagLib8IOStreamC1Ev
_ZN6TagLib8IOStreamC2Ev
_ZN6TagLib8IOStreamD0Ev
_ZN6TagLib8IOStreamD1Ev
_ZN6TagLib8IOStreamD2Ev
_ZN6TagLib9TrueAudio10Properties4readERKNS_10ByteVectorEl
_ZN6TagLib9TrueAudio10PropertiesC1ERKNS_10ByteVectorElNS_15AudioProperties9ReadStyleE
_ZN6TagLib9TrueAudio10PropertiesC2ERKNS_10ByteVectorElNS_15AudioProperties9ReadStyleE
_ZN6TagLib9TrueAudio10PropertiesD0Ev
_ZN6TagLib9TrueAudio10PropertiesD1Ev
_ZN6TagLib9TrueAudio10PropertiesD2Ev
_ZN6TagLib9TrueAudio4File13setPropertiesERKNS_11PropertyMapE
_ZN6TagLib9TrueAudio4File20setID3v2FrameFactoryEPKNS_5ID3v212FrameFactoryE
_ZN6TagLib9TrueAudio4File27removeUnsupportedPropertiesERKNS_10StringListE
_ZN6TagLib9TrueAudio4File4readEb
_ZN6TagLib9TrueAudio4File4saveEv
_ZN6TagLib9TrueAudio4File5stripEi
_ZN6TagLib9TrueAudio4File8ID3v1TagEb
_ZN6TagLib9TrueAudio4File8ID3v2TagEb
_ZN6TagLib9TrueAudio4FileC1ENS_8FileNameEPNS_5ID3v212FrameFactoryEbNS_15AudioProperties9ReadStyleE
_ZN6TagLib9TrueAudio4FileC1ENS_8FileNameEbNS_15AudioProperties9ReadStyleE
_ZN6TagLib9TrueAudio4FileC1EPNS_8IOStreamEPNS_5ID3v212FrameFactoryEbNS_15AudioProperties9ReadStyleE
_ZN6TagLib9TrueAudio4FileC1EPNS_8IOStreamEbNS_15AudioProperties9ReadStyleE
_ZN6TagLib9TrueAudio4FileC2ENS_8FileNameEPNS_5ID3v212FrameFactoryEbNS_15AudioProperties9ReadStyleE
_ZN6TagLib9TrueAudio4FileC2ENS_8FileNameEbNS_15AudioProperties9ReadStyleE
_ZN6TagLib9TrueAudio4FileC2EPNS_8IOStreamEPNS_5ID3v212FrameFactoryEbNS_15AudioProperties9ReadStyleE
_ZN6TagLib9TrueAudio4FileC2EPNS_8IOStreamEbNS_15AudioProperties9ReadStyleE
_ZN6TagLib9TrueAudio4FileD0Ev
_ZN6TagLib9TrueAudio4FileD1Ev
_ZN6TagLib9TrueAudio4FileD2Ev
_ZNK6TagLib10ByteVector10containsAtERKS0_jjj
_ZNK6TagLib10ByteVector10startsWithERKS0_
_ZNK6TagLib10ByteVector10toLongLongEb
_ZNK6TagLib10ByteVector10toLongLongEjb
_ZNK6TagLib10ByteVector11toFloat32BEEy
_ZNK6TagLib10ByteVector11toFloat32LEEy
_ZNK6TagLib10ByteVector11toFloat64BEEy
_ZNK6TagLib10ByteVector11toFloat64LEEy
_ZNK6TagLib10ByteVector11toFloat80BEEy
_ZNK6TagLib10ByteVector11toFloat80LEEy
_ZNK6TagLib10ByteVector20endsWithPartialMatchERKS0_
_ZNK6TagLib10ByteVector2atEj
_ZNK6TagLib10ByteVector3endEv
_ZNK6TagLib10ByteVector3midEjj
_ZNK6TagLib10ByteVector4dataEv
_ZNK6TagLib10ByteVector4findERKS0_ji
_ZNK6TagLib10ByteVector4findEcji
_ZNK6TagLib10ByteVector4rendEv
_ZNK6TagLib10ByteVector4sizeEv
_ZNK6TagLib10ByteVector5beginEv
_ZNK6TagLib10ByteVector5rfindERKS0_ji
_ZNK6TagLib10ByteVector5toHexEv
_ZNK6TagLib10ByteVector6isNullEv
_ZNK6TagLib10ByteVector6rbeginEv
_ZNK6TagLib10ByteVector6toUIntEb
_ZNK6TagLib10ByteVector6toUIntEjb
_ZNK6TagLib10ByteVector6toUIntEjjb
_ZNK6TagLib10ByteVector7isEmptyEv
_ZNK6TagLib10ByteVector7toShortEb
_ZNK6TagLib10ByteVector7toShortEjb
_ZNK6TagLib10ByteVector8checksumEv
_ZNK6TagLib10ByteVector8endsWithERKS0_
_ZNK6TagLib10ByteVector8toBase64Ev
_ZNK6TagLib10ByteVector8toUShortEb
_ZNK6TagLib10ByteVector8toUShortEjb
_ZNK6TagLib10ByteVectoreqEPKc
_ZNK6TagLib10ByteVectoreqERKS0_
_ZNK6TagLib10ByteVectorgtERKS0_
_ZNK6TagLib10ByteVectorixEi
_ZNK6TagLib10ByteVectorltERKS0_
_ZNK6TagLib10ByteVectorneEPKc
_ZNK6TagLib10ByteVectorneERKS0_
_ZNK6TagLib10ByteVectorplERKS0_
_ZNK6TagLib10FileStream4nameEv
_ZNK6TagLib10FileStream4tellEv
_ZNK6TagLib10FileStream6isOpenEv
_ZNK6TagLib10FileStream8readOnlyEv
_ZNK6TagLib10RefCounter5countEv
_ZNK6TagLib10StringList8toStringERKNS_6StringE
_ZNK6TagLib11PropertyMap15unsupportedDataEv
_ZNK6TagLib11PropertyMap4findERKNS_6StringE
_ZNK6TagLib11PropertyMap8containsERKNS_6StringE
_ZNK6TagLib11PropertyMap8containsERKS0_
_ZNK6TagLib11PropertyMap8toStringEv
_ZNK6TagLib11PropertyMapeqERKS0_
_ZNK6TagLib11PropertyMapixERKNS_6StringE
_ZNK6TagLib11PropertyMapneERKS0_
_ZNK6TagLib14ByteVectorList12toByteVectorERKNS_10ByteVectorE
_ZNK6TagLib15AudioProperties15lengthInSecondsEv
_ZNK6TagLib15AudioProperties20lengthInMillisecondsEv
_ZNK6TagLib16ByteVectorStream4nameEv
_ZNK6TagLib16ByteVectorStream4tellEv
_ZNK6TagLib16ByteVectorStream6isOpenEv
_ZNK6TagLib16ByteVectorStream8readOnlyEv
_ZNK6TagLib2IT10Properties10sampleRateEv
_ZNK6TagLib2IT10Properties11sampleCountEv
_ZNK6TagLib2IT10Properties12globalVolumeEv
_ZNK6TagLib2IT10Properties12patternCountEv
_ZNK6TagLib2IT10Properties15instrumentCountEv
_ZNK6TagLib2IT10Properties15lengthInSecondsEv
_ZNK6TagLib2IT10Properties15pitchWheelDepthEv
_ZNK6TagLib2IT10Properties16lengthInPatternsEv
_ZNK6TagLib2IT10Properties17compatibleVersionEv
_ZNK6TagLib2IT10Properties17panningSeparationEv
_ZNK6TagLib2IT10Properties20lengthInMillisecondsEv
_ZNK6TagLib2IT10Properties5flagsEv
_ZNK6TagLib2IT10Properties5tempoEv
_ZNK6TagLib2IT10Properties6lengthEv
_ZNK6TagLib2IT10Properties6stereoEv
_ZNK6TagLib2IT10Properties7bitrateEv
_ZNK6TagLib2IT10Properties7specialEv
_ZNK6TagLib2IT10Properties7versionEv
_ZNK6TagLib2IT10Properties8bpmSpeedEv
_ZNK6TagLib2IT10Properties8channelsEv
_ZNK6TagLib2IT10Properties9mixVolumeEv
_ZNK6TagLib2IT4File10propertiesEv
_ZNK6TagLib2IT4File15audioPropertiesEv
_ZNK6TagLib2IT4File3tagEv
_ZNK6TagLib2XM10Properties10sampleRateEv
_ZNK6TagLib2XM10Properties11sampleCountEv
_ZNK6TagLib2XM10Properties12patternCountEv
_ZNK6TagLib2XM10Properties15instrumentCountEv
_ZNK6TagLib2XM10Properties15lengthInSecondsEv
_ZNK6TagLib2XM10Properties15restartPositionEv
_ZNK6TagLib2XM10Properties16lengthInPatternsEv
_ZNK6TagLib2XM10Properties20lengthInMillisecondsEv
_ZNK6TagLib2XM10Properties5flagsEv
_ZNK6TagLib2XM10Properties5tempoEv
_ZNK6TagLib2XM10Properties6lengthEv
_ZNK6TagLib2XM10Properties7bitrateEv
_ZNK6TagLib2XM10Properties7versionEv
_ZNK6TagLib2XM10Properties8bpmSpeedEv
_ZNK6TagLib2XM10Properties8channelsEv
_ZNK6TagLib2XM4File10propertiesEv
_ZNK6TagLib2XM4File15audioPropertiesEv
_ZNK6TagLib2XM4File3tagEv
_ZNK6TagLib3APE10Properties10sampleRateEv
_ZNK6TagLib3APE10Properties12sampleFramesEv
_ZNK6TagLib3APE10Properties13bitsPerSampleEv
_ZNK6TagLib3APE10Properties15lengthInSecondsEv
_ZNK6TagLib3APE10Properties20lengthInMillisecondsEv
_ZNK6TagLib3APE10Properties6lengthEv
_ZNK6TagLib3APE10Properties7bitrateEv
_ZNK6TagLib3APE10Properties7versionEv
_ZNK6TagLib3APE10Properties8channelsEv
_ZNK6TagLib3APE3Tag10propertiesEv
_ZNK6TagLib3APE3Tag11itemListMapEv
_ZNK6TagLib3APE3Tag4yearEv
_ZNK6TagLib3APE3Tag5albumEv
_ZNK6TagLib3APE3Tag5genreEv
_ZNK6TagLib3APE3Tag5titleEv
_ZNK6TagLib3APE3Tag5trackEv
_ZNK6TagLib3APE3Tag6artistEv
_ZNK6TagLib3APE3Tag6footerEv
_ZNK6TagLib3APE3Tag6renderEv
_ZNK6TagLib3APE3Tag7commentEv
_ZNK6TagLib3APE3Tag7isEmptyEv
_ZNK6TagLib3APE4File10propertiesEv
_ZNK6TagLib3APE4File11hasID3v1TagEv
_ZNK6TagLib3APE4File15audioPropertiesEv
_ZNK6TagLib3APE4File3tagEv
_ZNK6TagLib3APE4File9hasAPETagEv
_ZNK6TagLib3APE4Item10binaryDataEv
_ZNK6TagLib3APE4Item10isReadOnlyEv
_ZNK6TagLib3APE4Item12toStringListEv
_ZNK6TagLib3APE4Item3keyEv
_ZNK6TagLib3APE4Item4sizeEv
_ZNK6TagLib3APE4Item4typeEv
_ZNK6TagLib3APE4Item5valueEv
_ZNK6TagLib3APE4Item6renderEv
_ZNK6TagLib3APE4Item6valuesEv
_ZNK6TagLib3APE4Item7isEmptyEv
_ZNK6TagLib3APE4Item8toStringEv
_ZNK6TagLib3APE6Footer12renderFooterEv
_ZNK6TagLib3APE6Footer12renderHeaderEv
_ZNK6TagLib3APE6Footer13footerPresentEv
_ZNK6TagLib3APE6Footer13headerPresentEv
_ZNK6TagLib3APE6Footer15completeTagSizeEv
_ZNK6TagLib3APE6Footer16setHeaderPresentEb
_ZNK6TagLib3APE6Footer6renderEb
_ZNK6TagLib3APE6Footer7tagSizeEv
_ZNK6TagLib3APE6Footer7versionEv
_ZNK6TagLib3APE6Footer8isHeaderEv
_ZNK6TagLib3APE6Footer9itemCountEv
_ZNK6TagLib3ASF10Properties10sampleRateEv
_ZNK6TagLib3ASF10Properties11isEncryptedEv
_ZNK6TagLib3ASF10Properties13bitsPerSampleEv
_ZNK6TagLib3ASF10Properties15lengthInSecondsEv
_ZNK6TagLib3ASF10Properties16codecDescriptionEv
_ZNK6TagLib3ASF10Properties20lengthInMillisecondsEv
_ZNK6TagLib3ASF10Properties5codecEv
_ZNK6TagLib3ASF10Properties6lengthEv
_ZNK6TagLib3ASF10Properties7bitrateEv
_ZNK6TagLib3ASF10Properties8channelsEv
_ZNK6TagLib3ASF10Properties9codecNameEv
_ZNK6TagLib3ASF3Tag10propertiesEv
_ZNK6TagLib3ASF3Tag16attributeListMapEv
_ZNK6TagLib3ASF3Tag4yearEv
_ZNK6TagLib3ASF3Tag5albumEv
_ZNK6TagLib3ASF3Tag5genreEv
_ZNK6TagLib3ASF3Tag5titleEv
_ZNK6TagLib3ASF3Tag5trackEv
_ZNK6TagLib3ASF3Tag6artistEv
_ZNK6TagLib3ASF3Tag6ratingEv
_ZNK6TagLib3ASF3Tag7commentEv
_ZNK6TagLib3ASF3Tag7isEmptyEv
_ZNK6TagLib3ASF3Tag8containsERKNS_6StringE
_ZNK6TagLib3ASF3Tag9attributeERKNS_6StringE
_ZNK6TagLib3ASF3Tag9copyrightEv
_ZNK6TagLib3ASF4File10propertiesEv
_ZNK6TagLib3ASF4File15audioPropertiesEv
_ZNK6TagLib3ASF4File3tagEv
_ZNK6TagLib3ASF7Picture11descriptionEv
_ZNK6TagLib3ASF7Picture4typeEv
_ZNK6TagLib3ASF7Picture6renderEv
_ZNK6TagLib3ASF7Picture7isValidEv
_ZNK6TagLib3ASF7Picture7pictureEv
_ZNK6TagLib3ASF7Picture8dataSizeEv
_ZNK6TagLib3ASF7Picture8mimeTypeEv
_ZNK6TagLib3ASF9Attribute11toULongLongEv
_ZNK6TagLib3ASF9Attribute12toByteVectorEv
_ZNK6TagLib3ASF9Attribute4typeEv
_ZNK6TagLib3ASF9Attribute6renderERKNS_6StringEi
_ZNK6TagLib3ASF9Attribute6streamEv
_ZNK6TagLib3ASF9Attribute6toBoolEv
_ZNK6TagLib3ASF9Attribute6toUIntEv
_ZNK6TagLib3ASF9Attribute8dataSizeEv
_ZNK6TagLib3ASF9Attribute8languageEv
_ZNK6TagLib3ASF9Attribute8toStringEv
_ZNK6TagLib3ASF9Attribute8toUShortEv
_ZNK6TagLib3ASF9Attribute9toPictureEv
_ZNK6TagLib3MP410Properties10sampleRateEv
_ZNK6TagLib3MP410Properties11isEncryptedEv
_ZNK6TagLib3MP410Properties13bitsPerSampleEv
_ZNK6TagLib3MP410Properties15lengthInSecondsEv
_ZNK6TagLib3MP410Properties20lengthInMillisecondsEv
_ZNK6TagLib3MP410Properties5codecEv
_ZNK6TagLib3MP410Properties6lengthEv
_ZNK6TagLib3MP410Properties7bitrateEv
_ZNK6TagLib3MP410Properties8channelsEv
_ZNK6TagLib3MP43Tag10propertiesEv
_ZNK6TagLib3MP43Tag10renderAtomERKNS_10ByteVectorES4_
_ZNK6TagLib3MP43Tag10renderBoolERKNS_10ByteVectorERKNS0_4ItemE
_ZNK6TagLib3MP43Tag10renderByteERKNS_10ByteVectorERKNS0_4ItemE
_ZNK6TagLib3MP43Tag10renderCovrERKNS_10ByteVectorERKNS0_4ItemE
_ZNK6TagLib3MP43Tag10renderDataERKNS_10ByteVectorEiRKNS_14ByteVectorListE
_ZNK6TagLib3MP43Tag10renderTextERKNS_10ByteVectorERKNS0_4ItemEi
_ZNK6TagLib3MP43Tag10renderUIntERKNS_10ByteVectorERKNS0_4ItemE
_ZNK6TagLib3MP43Tag13renderIntPairERKNS_10ByteVectorERKNS0_4ItemE
_ZNK6TagLib3MP43Tag14renderFreeFormERKNS_6StringERKNS0_4ItemE
_ZNK6TagLib3MP43Tag14renderLongLongERKNS_10ByteVectorERKNS0_4ItemE
_ZNK6TagLib3MP43Tag23renderIntPairNoTrailingERKNS_10ByteVectorERKNS0_4ItemE
_ZNK6TagLib3MP43Tag4itemERKNS_6StringE
_ZNK6TagLib3MP43Tag4yearEv
_ZNK6TagLib3MP43Tag5albumEv
_ZNK6TagLib3MP43Tag5genreEv
_ZNK6TagLib3MP43Tag5titleEv
_ZNK6TagLib3MP43Tag5trackEv
_ZNK6TagLib3MP43Tag6artistEv
_ZNK6TagLib3MP43Tag7commentEv
_ZNK6TagLib3MP43Tag7isEmptyEv
_ZNK6TagLib3MP43Tag7itemMapEv
_ZNK6TagLib3MP43Tag7padIlstERKNS_10ByteVectorEi
_ZNK6TagLib3MP43Tag8containsERKNS_6StringE
_ZNK6TagLib3MP43Tag9renderIntERKNS_10ByteVectorERKNS0_4ItemE
_ZNK6TagLib3MP44File10propertiesEv
_ZNK6TagLib3MP44File15audioPropertiesEv
_ZNK6TagLib3MP44File3tagEv
_ZNK6TagLib3MP44File9hasMP4TagEv
_ZNK6TagLib3MP44Item10toLongLongEv
_ZNK6TagLib3MP44Item12atomDataTypeEv
_ZNK6TagLib3MP44Item12toStringListEv
_ZNK6TagLib3MP44Item14toCoverArtListEv
_ZNK6TagLib3MP44Item16toByteVectorListEv
_ZNK6TagLib3MP44Item5toIntEv
_ZNK6TagLib3MP44Item6toBoolEv
_ZNK6TagLib3MP44Item6toByteEv
_ZNK6TagLib3MP44Item6toUIntEv
_ZNK6TagLib3MP44Item7isValidEv
_ZNK6TagLib3MP44Item9toIntPairEv
_ZNK6TagLib3MP48CoverArt4dataEv
_ZNK6TagLib3MP48CoverArt6formatEv
_ZNK6TagLib3MPC10Properties10mpcVersionEv
_ZNK6TagLib3MPC10Properties10sampleRateEv
_ZNK6TagLib3MPC10Properties11totalFramesEv
_ZNK6TagLib3MPC10Properties12sampleFramesEv
_ZNK6TagLib3MPC10Properties15lengthInSecondsEv
_ZNK6TagLib3MPC10Properties20lengthInMillisecondsEv
_ZNK6TagLib3MPC10Properties6lengthEv
_ZNK6TagLib3MPC10Properties7bitrateEv
_ZNK6TagLib3MPC10Properties8channelsEv
_ZNK6TagLib3MPC10Properties9albumGainEv
_ZNK6TagLib3MPC10Properties9albumPeakEv
_ZNK6TagLib3MPC10Properties9trackGainEv
_ZNK6TagLib3MPC10Properties9trackPeakEv
_ZNK6TagLib3MPC4File10propertiesEv
_ZNK6TagLib3MPC4File11hasID3v1TagEv
_ZNK6TagLib3MPC4File15audioPropertiesEv
_ZNK6TagLib3MPC4File3tagEv
_ZNK6TagLib3MPC4File9hasAPETagEv
_ZNK6TagLib3Mod10Properties10sampleRateEv
_ZNK6TagLib3Mod10Properties15instrumentCountEv
_ZNK6TagLib3Mod10Properties15lengthInSecondsEv
_ZNK6TagLib3Mod10Properties16lengthInPatternsEv
_ZNK6TagLib3Mod10Properties20lengthInMillisecondsEv
_ZNK6TagLib3Mod10Properties6lengthEv
_ZNK6TagLib3Mod10Properties7bitrateEv
_ZNK6TagLib3Mod10Properties8channelsEv
_ZNK6TagLib3Mod3Tag10propertiesEv
_ZNK6TagLib3Mod3Tag11trackerNameEv
_ZNK6TagLib3Mod3Tag4yearEv
_ZNK6TagLib3Mod3Tag5albumEv
_ZNK6TagLib3Mod3Tag5genreEv
_ZNK6TagLib3Mod3Tag5titleEv
_ZNK6TagLib3Mod3Tag5trackEv
_ZNK6TagLib3Mod3Tag6artistEv
_ZNK6TagLib3Mod3Tag7commentEv
_ZNK6TagLib3Mod4File10propertiesEv
_ZNK6TagLib3Mod4File15audioPropertiesEv
_ZNK6TagLib3Mod4File3tagEv
_ZNK6TagLib3Ogg10PageHeader11packetSizesEv
_ZNK6TagLib3Ogg10PageHeader12lacingValuesEv
_ZNK6TagLib3Ogg10PageHeader16lastPageOfStreamEv
_ZNK6TagLib3Ogg10PageHeader17firstPageOfStreamEv
_ZNK6TagLib3Ogg10PageHeader18pageSequenceNumberEv
_ZNK6TagLib3Ogg10PageHeader18streamSerialNumberEv
_ZNK6TagLib3Ogg10PageHeader19lastPacketCompletedEv
_ZNK6TagLib3Ogg10PageHeader20firstPacketContinuedEv
_ZNK6TagLib3Ogg10PageHeader24absoluteGranularPositionEv
_ZNK6TagLib3Ogg10PageHeader4sizeEv
_ZNK6TagLib3Ogg10PageHeader6renderEv
_ZNK6TagLib3Ogg10PageHeader7isValidEv
_ZNK6TagLib3Ogg10PageHeader8dataSizeEv
_ZNK6TagLib3Ogg11XiphComment10fieldCountEv
_ZNK6TagLib3Ogg11XiphComment10propertiesEv
_ZNK6TagLib3Ogg11XiphComment12fieldListMapEv
_ZNK6TagLib3Ogg11XiphComment4yearEv
_ZNK6TagLib3Ogg11XiphComment5albumEv
_ZNK6TagLib3Ogg11XiphComment5genreEv
_ZNK6TagLib3Ogg11XiphComment5titleEv
_ZNK6TagLib3Ogg11XiphComment5trackEv
_ZNK6TagLib3Ogg11XiphComment6artistEv
_ZNK6TagLib3Ogg11XiphComment6renderEb
_ZNK6TagLib3Ogg11XiphComment6renderEv
_ZNK6TagLib3Ogg11XiphComment7commentEv
_ZNK6TagLib3Ogg11XiphComment7isEmptyEv
_ZNK6TagLib3Ogg11XiphComment8containsERKNS_6StringE
_ZNK6TagLib3Ogg11XiphComment8vendorIDEv
_ZNK6TagLib3Ogg4FLAC4File10propertiesEv
_ZNK6TagLib3Ogg4FLAC4File14hasXiphCommentEv
_ZNK6TagLib3Ogg4FLAC4File15audioPropertiesEv
_ZNK6TagLib3Ogg4FLAC4File3tagEv
_ZNK6TagLib3Ogg4Opus10Properties10sampleRateEv
_ZNK6TagLib3Ogg4Opus10Properties11opusVersionEv
_ZNK6TagLib3Ogg4Opus10Properties15inputSampleRateEv
_ZNK6TagLib3Ogg4Opus10Properties15lengthInSecondsEv
_ZNK6TagLib3Ogg4Opus10Properties20lengthInMillisecondsEv
_ZNK6TagLib3Ogg4Opus10Properties6lengthEv
_ZNK6TagLib3Ogg4Opus10Properties7bitrateEv
_ZNK6TagLib3Ogg4Opus10Properties8channelsEv
_ZNK6TagLib3Ogg4Opus4File10propertiesEv
_ZNK6TagLib3Ogg4Opus4File15audioPropertiesEv
_ZNK6TagLib3Ogg4Opus4File3tagEv
_ZNK6TagLib3Ogg4Page10fileOffsetEv
_ZNK6TagLib3Ogg4Page11packetCountEv
_ZNK6TagLib3Ogg4Page14containsPacketEi
_ZNK6TagLib3Ogg4Page16firstPacketIndexEv
_ZNK6TagLib3Ogg4Page18pageSequenceNumberEv
_ZNK6TagLib3Ogg4Page4sizeEv
_ZNK6TagLib3Ogg4Page6headerEv
_ZNK6TagLib3Ogg4Page6renderEv
_ZNK6TagLib3Ogg4Page7packetsEv
_ZNK6TagLib3Ogg5Speex10Properties10sampleRateEv
_ZNK6TagLib3Ogg5Speex10Properties12speexVersionEv
_ZNK6TagLib3Ogg5Speex10Properties14bitrateNominalEv
_ZNK6TagLib3Ogg5Speex10Properties15lengthInSecondsEv
_ZNK6TagLib3Ogg5Speex10Properties20lengthInMillisecondsEv
_ZNK6TagLib3Ogg5Speex10Properties6lengthEv
_ZNK6TagLib3Ogg5Speex10Properties7bitrateEv
_ZNK6TagLib3Ogg5Speex10Properties8channelsEv
_ZNK6TagLib3Ogg5Speex4File10propertiesEv
_ZNK6TagLib3Ogg5Speex4File15audioPropertiesEv
_ZNK6TagLib3Ogg5Speex4File3tagEv
_ZNK6TagLib3S3M10Properties10sampleRateEv
_ZNK6TagLib3S3M10Properties11sampleCountEv
_ZNK6TagLib3S3M10Properties12globalVolumeEv
_ZNK6TagLib3S3M10Properties12masterVolumeEv
_ZNK6TagLib3S3M10Properties12patternCountEv
_ZNK6TagLib3S3M10Properties14trackerVersionEv
_ZNK6TagLib3S3M10Properties15lengthInSecondsEv
_ZNK6TagLib3S3M10Properties16lengthInPatternsEv
_ZNK6TagLib3S3M10Properties17fileFormatVersionEv
_ZNK6TagLib3S3M10Properties20lengthInMillisecondsEv
_ZNK6TagLib3S3M10Properties5flagsEv
_ZNK6TagLib3S3M10Properties5tempoEv
_ZNK6TagLib3S3M10Properties6lengthEv
_ZNK6TagLib3S3M10Properties6stereoEv
_ZNK6TagLib3S3M10Properties7bitrateEv
_ZNK6TagLib3S3M10Properties8bpmSpeedEv
_ZNK6TagLib3S3M10Properties8channelsEv
_ZNK6TagLib3S3M4File10propertiesEv
_ZNK6TagLib3S3M4File15audioPropertiesEv
_ZNK6TagLib3S3M4File3tagEv
_ZNK6TagLib3Tag10propertiesEv
_ZNK6TagLib3Tag7isEmptyEv
_ZNK6TagLib4FLAC10Properties10sampleRateEv
_ZNK6TagLib4FLAC10Properties11sampleWidthEv
_ZNK6TagLib4FLAC10Properties12sampleFramesEv
_ZNK6TagLib4FLAC10Properties13bitsPerSampleEv
_ZNK6TagLib4FLAC10Properties15lengthInSecondsEv
_ZNK6TagLib4FLAC10Properties20lengthInMillisecondsEv
_ZNK6TagLib4FLAC10Properties6lengthEv
_ZNK6TagLib4FLAC10Properties7bitrateEv
_ZNK6TagLib4FLAC10Properties8channelsEv
_ZNK6TagLib4FLAC10Properties9signatureEv
_ZNK6TagLib4FLAC20UnknownMetadataBlock4codeEv
_ZNK6TagLib4FLAC20UnknownMetadataBlock4dataEv
_ZNK6TagLib4FLAC20UnknownMetadataBlock6renderEv
_ZNK6TagLib4FLAC4File10propertiesEv
_ZNK6TagLib4FLAC4File11hasID3v1TagEv
_ZNK6TagLib4FLAC4File11hasID3v2TagEv
_ZNK6TagLib4FLAC4File14hasXiphCommentEv
_ZNK6TagLib4FLAC4File15audioPropertiesEv
_ZNK6TagLib4FLAC4File3tagEv
_ZNK6TagLib4FLAC7Picture10colorDepthEv
_ZNK6TagLib4FLAC7Picture11descriptionEv
_ZNK6TagLib4FLAC7Picture4codeEv
_ZNK6TagLib4FLAC7Picture4dataEv
_ZNK6TagLib4FLAC7Picture4typeEv
_ZNK6TagLib4FLAC7Picture5widthEv
_ZNK6TagLib4FLAC7Picture6heightEv
_ZNK6TagLib4FLAC7Picture6renderEv
_ZNK6TagLib4FLAC7Picture8mimeTypeEv
_ZNK6TagLib4FLAC7Picture9numColorsEv
_ZNK6TagLib4File10propertiesEv
_ZNK6TagLib4File4nameEv
_ZNK6TagLib4File4tellEv
_ZNK6TagLib4File6isOpenEv
_ZNK6TagLib4File7isValidEv
_ZNK6TagLib4File8readOnlyEv
_ZNK6TagLib4MPEG10Properties10isOriginalEv
_ZNK6TagLib4MPEG10Properties10sampleRateEv
_ZNK6TagLib4MPEG10Properties10xingHeaderEv
_ZNK6TagLib4MPEG10Properties11channelModeEv
_ZNK6TagLib4MPEG10Properties13isCopyrightedEv
_ZNK6TagLib4MPEG10Properties15lengthInSecondsEv
_ZNK6TagLib4MPEG10Properties17protectionEnabledEv
_ZNK6TagLib4MPEG10Properties20lengthInMillisecondsEv
_ZNK6TagLib4MPEG10Properties5layerEv
_ZNK6TagLib4MPEG10Properties6lengthEv
_ZNK6TagLib4MPEG10Properties7bitrateEv
_ZNK6TagLib4MPEG10Properties7versionEv
_ZNK6TagLib4MPEG10Properties8channelsEv
_ZNK6TagLib4MPEG10XingHeader11totalFramesEv
_ZNK6TagLib4MPEG10XingHeader4typeEv
_ZNK6TagLib4MPEG10XingHeader7isValidEv
_ZNK6TagLib4MPEG10XingHeader9totalSizeEv
_ZNK6TagLib4MPEG4File10propertiesEv
_ZNK6TagLib4MPEG4File11hasID3v1TagEv
_ZNK6TagLib4MPEG4File11hasID3v2TagEv
_ZNK6TagLib4MPEG4File15audioPropertiesEv
_ZNK6TagLib4MPEG4File3tagEv
_ZNK6TagLib4MPEG4File9hasAPETagEv
_ZNK6TagLib4MPEG6Header10isOriginalEv
_ZNK6TagLib4MPEG6Header10sampleRateEv
_ZNK6TagLib4MPEG6Header11channelModeEv
_ZNK6TagLib4MPEG6Header11frameLengthEv
_ZNK6TagLib4MPEG6Header13isCopyrightedEv
_ZNK6TagLib4MPEG6Header15samplesPerFrameEv
_ZNK6TagLib4MPEG6Header17protectionEnabledEv
_ZNK6TagLib4MPEG6Header5layerEv
_ZNK6TagLib4MPEG6Header7bitrateEv
_ZNK6TagLib4MPEG6Header7isValidEv
_ZNK6TagLib4MPEG6Header7versionEv
_ZNK6TagLib4MPEG6Header8isPaddedEv
_ZNK6TagLib4RIFF3WAV10Properties10sampleRateEv
_ZNK6TagLib4RIFF3WAV10Properties11sampleWidthEv
_ZNK6TagLib4RIFF3WAV10Properties12sampleFramesEv
_ZNK6TagLib4RIFF3WAV10Properties13bitsPerSampleEv
_ZNK6TagLib4RIFF3WAV10Properties15lengthInSecondsEv
_ZNK6TagLib4RIFF3WAV10Properties20lengthInMillisecondsEv
_ZNK6TagLib4RIFF3WAV10Properties6formatEv
_ZNK6TagLib4RIFF3WAV10Properties6lengthEv
_ZNK6TagLib4RIFF3WAV10Properties7bitrateEv
_ZNK6TagLib4RIFF3WAV10Properties8channelsEv
_ZNK6TagLib4RIFF3WAV4File10hasInfoTagEv
_ZNK6TagLib4RIFF3WAV4File10propertiesEv
_ZNK6TagLib4RIFF3WAV4File11hasID3v2TagEv
_ZNK6TagLib4RIFF3WAV4File15audioPropertiesEv
_ZNK6TagLib4RIFF3WAV4File3tagEv
_ZNK6TagLib4RIFF3WAV4File7InfoTagEv
_ZNK6TagLib4RIFF3WAV4File8ID3v2TagEv
_ZNK6TagLib4RIFF4AIFF10Properties10sampleRateEv
_ZNK6TagLib4RIFF4AIFF10Properties11sampleWidthEv
_ZNK6TagLib4RIFF4AIFF10Properties12sampleFramesEv
_ZNK6TagLib4RIFF4AIFF10Properties13bitsPerSampleEv
_ZNK6TagLib4RIFF4AIFF10Properties15compressionNameEv
_ZNK6TagLib4RIFF4AIFF10Properties15compressionTypeEv
_ZNK6TagLib4RIFF4AIFF10Properties15lengthInSecondsEv
_ZNK6TagLib4RIFF4AIFF10Properties20lengthInMillisecondsEv
_ZNK6TagLib4RIFF4AIFF10Properties6lengthEv
_ZNK6TagLib4RIFF4AIFF10Properties7bitrateEv
_ZNK6TagLib4RIFF4AIFF10Properties7isAiffCEv
_ZNK6TagLib4RIFF4AIFF10Properties8channelsEv
_ZNK6TagLib4RIFF4AIFF4File10propertiesEv
_ZNK6TagLib4RIFF4AIFF4File11hasID3v2TagEv
_ZNK6TagLib4RIFF4AIFF4File15audioPropertiesEv
_ZNK6TagLib4RIFF4AIFF4File3tagEv
_ZNK6TagLib4RIFF4File10chunkCountEv
_ZNK6TagLib4RIFF4File11chunkOffsetEj
_ZNK6TagLib4RIFF4File12chunkPaddingEj
_ZNK6TagLib4RIFF4File13chunkDataSizeEj
_ZNK6TagLib4RIFF4File8riffSizeEv
_ZNK6TagLib4RIFF4File9chunkNameEj
_ZNK6TagLib4RIFF4Info13StringHandler5parseERKNS_10ByteVectorE
_ZNK6TagLib4RIFF4Info13StringHandler6renderERKNS_6StringE
_ZNK6TagLib4RIFF4Info3Tag12fieldListMapEv
_ZNK6TagLib4RIFF4Info3Tag4yearEv
_ZNK6TagLib4RIFF4Info3Tag5albumEv
_ZNK6TagLib4RIFF4Info3Tag5genreEv
_ZNK6TagLib4RIFF4Info3Tag5titleEv
_ZNK6TagLib4RIFF4Info3Tag5trackEv
_ZNK6TagLib4RIFF4Info3Tag6artistEv
_ZNK6TagLib4RIFF4Info3Tag6renderEv
_ZNK6TagLib4RIFF4Info3Tag7commentEv
_ZNK6TagLib4RIFF4Info3Tag7isEmptyEv
_ZNK6TagLib4RIFF4Info3Tag9fieldTextERKNS_10ByteVectorE
_ZNK6TagLib5ID3v113StringHandler5parseERKNS_10ByteVectorE
_ZNK6TagLib5ID3v113StringHandler6renderERKNS_6StringE
_ZNK6TagLib5ID3v13Tag11genreNumberEv
_ZNK6TagLib5ID3v13Tag4yearEv
_ZNK6TagLib5ID3v13Tag5albumEv
_ZNK6TagLib5ID3v13Tag5genreEv
_ZNK6TagLib5ID3v13Tag5titleEv
_ZNK6TagLib5ID3v13Tag5trackEv
_ZNK6TagLib5ID3v13Tag6artistEv
_ZNK6TagLib5ID3v13Tag6renderEv
_ZNK6TagLib5ID3v13Tag7commentEv
_ZNK6TagLib5ID3v212ChapterFrame11startOffsetEv
_ZNK6TagLib5ID3v212ChapterFrame12asPropertiesEv
_ZNK6TagLib5ID3v212ChapterFrame12renderFieldsEv
_ZNK6TagLib5ID3v212ChapterFrame17embeddedFrameListERKNS_10ByteVectorE
_ZNK6TagLib5ID3v212ChapterFrame17embeddedFrameListEv
_ZNK6TagLib5ID3v212ChapterFrame20embeddedFrameListMapEv
_ZNK6TagLib5ID3v212ChapterFrame7endTimeEv
_ZNK6TagLib5ID3v212ChapterFrame8toStringEv
_ZNK6TagLib5ID3v212ChapterFrame9elementIDEv
_ZNK6TagLib5ID3v212ChapterFrame9endOffsetEv
_ZNK6TagLib5ID3v212ChapterFrame9startTimeEv
_ZNK6TagLib5ID3v212FrameFactory11createFrameERKNS_10ByteVectorEPNS0_6HeaderE
_ZNK6TagLib5ID3v212FrameFactory11createFrameERKNS_10ByteVectorEb
_ZNK6TagLib5ID3v212FrameFactory11createFrameERKNS_10ByteVectorEj
_ZNK6TagLib5ID3v212FrameFactory11updateFrameEPNS0_5Frame6HeaderE
_ZNK6TagLib5ID3v212FrameFactory19defaultTextEncodingEv
_ZNK6TagLib5ID3v212FrameFactory22rebuildAggregateFramesEPNS0_3TagE
_ZNK6TagLib5ID3v212PodcastFrame12renderFieldsEv
_ZNK6TagLib5ID3v212PodcastFrame8toStringEv
_ZNK6TagLib5ID3v212PrivateFrame12renderFieldsEv
_ZNK6TagLib5ID3v212PrivateFrame4dataEv
_ZNK6TagLib5ID3v212PrivateFrame5ownerEv
_ZNK6TagLib5ID3v212PrivateFrame8toStringEv
_ZNK6TagLib5ID3v212UnknownFrame12renderFieldsEv
_ZNK6TagLib5ID3v212UnknownFrame4dataEv
_ZNK6TagLib5ID3v212UnknownFrame8toStringEv
_ZNK6TagLib5ID3v212UrlLinkFrame12asPropertiesEv
_ZNK6TagLib5ID3v212UrlLinkFrame12renderFieldsEv
_ZNK6TagLib5ID3v212UrlLinkFrame3urlEv
_ZNK6TagLib5ID3v212UrlLinkFrame8toStringEv
_ZNK6TagLib5ID3v213CommentsFrame11descriptionEv
_ZNK6TagLib5ID3v213CommentsFrame12asPropertiesEv
_ZNK6TagLib5ID3v213CommentsFrame12renderFieldsEv
_ZNK6TagLib5ID3v213CommentsFrame12textEncodingEv
_ZNK6TagLib5ID3v213CommentsFrame4textEv
_ZNK6TagLib5ID3v213CommentsFrame8languageEv
_ZNK6TagLib5ID3v213CommentsFrame8toStringEv
_ZNK6TagLib5ID3v214ExtendedHeader4sizeEv
_ZNK6TagLib5ID3v214OwnershipFrame12renderFieldsEv
_ZNK6TagLib5ID3v214OwnershipFrame12textEncodingEv
_ZNK6TagLib5ID3v214OwnershipFrame13datePurchasedEv
_ZNK6TagLib5ID3v214OwnershipFrame6sellerEv
_ZNK6TagLib5ID3v214OwnershipFrame8toStringEv
_ZNK6TagLib5ID3v214OwnershipFrame9pricePaidEv
_ZNK6TagLib5ID3v216UserUrlLinkFrame11descriptionEv
_ZNK6TagLib5ID3v216UserUrlLinkFrame12asPropertiesEv
_ZNK6TagLib5ID3v216UserUrlLinkFrame12renderFieldsEv
_ZNK6TagLib5ID3v216UserUrlLinkFrame12textEncodingEv
_ZNK6TagLib5ID3v216UserUrlLinkFrame8toStringEv
_ZNK6TagLib5ID3v218PopularimeterFrame12renderFieldsEv
_ZNK6TagLib5ID3v218PopularimeterFrame5emailEv
_ZNK6TagLib5ID3v218PopularimeterFrame6ratingEv
_ZNK6TagLib5ID3v218PopularimeterFrame7counterEv
_ZNK6TagLib5ID3v218PopularimeterFrame8toStringEv
_ZNK6TagLib5ID3v219Latin1StringHandler5parseERKNS_10ByteVectorE
_ZNK6TagLib5ID3v219RelativeVolumeFrame10peakVolumeENS1_11ChannelTypeE
_ZNK6TagLib5ID3v219RelativeVolumeFrame10peakVolumeEv
_ZNK6TagLib5ID3v219RelativeVolumeFrame11channelTypeEv
_ZNK6TagLib5ID3v219RelativeVolumeFrame12renderFieldsEv
_ZNK6TagLib5ID3v219RelativeVolumeFrame14identificationEv
_ZNK6TagLib5ID3v219RelativeVolumeFrame16volumeAdjustmentENS1_11ChannelTypeE
_ZNK6TagLib5ID3v219RelativeVolumeFrame16volumeAdjustmentEv
_ZNK6TagLib5ID3v219RelativeVolumeFrame21volumeAdjustmentIndexENS1_11ChannelTypeE
_ZNK6TagLib5ID3v219RelativeVolumeFrame21volumeAdjustmentIndexEv
_ZNK6TagLib5ID3v219RelativeVolumeFrame8channelsEv
_ZNK6TagLib5ID3v219RelativeVolumeFrame8toStringEv
_ZNK6TagLib5ID3v220AttachedPictureFrame11descriptionEv
_ZNK6TagLib5ID3v220AttachedPictureFrame12renderFieldsEv
_ZNK6TagLib5ID3v220AttachedPictureFrame12textEncodingEv
_ZNK6TagLib5ID3v220AttachedPictureFrame4typeEv
_ZNK6TagLib5ID3v220AttachedPictureFrame7pictureEv
_ZNK6TagLib5ID3v220AttachedPictureFrame8mimeTypeEv
_ZNK6TagLib5ID3v220AttachedPictureFrame8toStringEv
_ZNK6TagLib5ID3v220TableOfContentsFrame10entryCountEv
_ZNK6TagLib5ID3v220TableOfContentsFrame10isTopLevelEv
_ZNK6TagLib5ID3v220TableOfContentsFrame12asPropertiesEv
_ZNK6TagLib5ID3v220TableOfContentsFrame12renderFieldsEv
_ZNK6TagLib5ID3v220TableOfContentsFrame13childElementsEv
_ZNK6TagLib5ID3v220TableOfContentsFrame17embeddedFrameListERKNS_10ByteVectorE
_ZNK6TagLib5ID3v220TableOfContentsFrame17embeddedFrameListEv
_ZNK6TagLib5ID3v220TableOfContentsFrame20embeddedFrameListMapEv
_ZNK6TagLib5ID3v220TableOfContentsFrame8toStringEv
_ZNK6TagLib5ID3v220TableOfContentsFrame9elementIDEv
_ZNK6TagLib5ID3v220TableOfContentsFrame9isOrderedEv
_ZNK6TagLib5ID3v221EventTimingCodesFrame12renderFieldsEv
_ZNK6TagLib5ID3v221EventTimingCodesFrame13synchedEventsEv
_ZNK6TagLib5ID3v221EventTimingCodesFrame15timestampFormatEv
_ZNK6TagLib5ID3v221EventTimingCodesFrame8toStringEv
_ZNK6TagLib5ID3v223SynchronizedLyricsFrame11descriptionEv
_ZNK6TagLib5ID3v223SynchronizedLyricsFrame11synchedTextEv
_ZNK6TagLib5ID3v223SynchronizedLyricsFrame12renderFieldsEv
_ZNK6TagLib5ID3v223SynchronizedLyricsFrame12textEncodingEv
_ZNK6TagLib5ID3v223SynchronizedLyricsFrame15timestampFormatEv
_ZNK6TagLib5ID3v223SynchronizedLyricsFrame4typeEv
_ZNK6TagLib5ID3v223SynchronizedLyricsFrame8languageEv
_ZNK6TagLib5ID3v223SynchronizedLyricsFrame8toStringEv
_ZNK6TagLib5ID3v223TextIdentificationFrame12asPropertiesEv
_ZNK6TagLib5ID3v223TextIdentificationFrame12renderFieldsEv
_ZNK6TagLib5ID3v223TextIdentificationFrame12textEncodingEv
_ZNK6TagLib5ID3v223TextIdentificationFrame18makeTIPLPropertiesEv
_ZNK6TagLib5ID3v223TextIdentificationFrame18makeTMCLPropertiesEv
_ZNK6TagLib5ID3v223TextIdentificationFrame8toStringEv
_ZNK6TagLib5ID3v223TextIdentificationFrame9fieldListEv
_ZNK6TagLib5ID3v225UniqueFileIdentifierFrame10identifierEv
_ZNK6TagLib5ID3v225UniqueFileIdentifierFrame12asPropertiesEv
_ZNK6TagLib5ID3v225UniqueFileIdentifierFrame12renderFieldsEv
_ZNK6TagLib5ID3v225UniqueFileIdentifierFrame5ownerEv
_ZNK6TagLib5ID3v225UniqueFileIdentifierFrame8toStringEv
_ZNK6TagLib5ID3v225UnsynchronizedLyricsFrame11descriptionEv
_ZNK6TagLib5ID3v225UnsynchronizedLyricsFrame12asPropertiesEv
_ZNK6TagLib5ID3v225UnsynchronizedLyricsFrame12renderFieldsEv
_ZNK6TagLib5ID3v225UnsynchronizedLyricsFrame12textEncodingEv
_ZNK6TagLib5ID3v225UnsynchronizedLyricsFrame4textEv
_ZNK6TagLib5ID3v225UnsynchronizedLyricsFrame8languageEv
_ZNK6TagLib5ID3v225UnsynchronizedLyricsFrame8toStringEv
_ZNK6TagLib5ID3v227UserTextIdentificationFrame11descriptionEv
_ZNK6TagLib5ID3v227UserTextIdentificationFrame12asPropertiesEv
_ZNK6TagLib5ID3v227UserTextIdentificationFrame8toStringEv
_ZNK6TagLib5ID3v227UserTextIdentificationFrame9fieldListEv
_ZNK6TagLib5ID3v230GeneralEncapsulatedObjectFrame11descriptionEv
_ZNK6TagLib5ID3v230GeneralEncapsulatedObjectFrame12renderFieldsEv
_ZNK6TagLib5ID3v230GeneralEncapsulatedObjectFrame12textEncodingEv
_ZNK6TagLib5ID3v230GeneralEncapsulatedObjectFrame6objectEv
_ZNK6TagLib5ID3v230GeneralEncapsulatedObjectFrame8fileNameEv
_ZNK6TagLib5ID3v230GeneralEncapsulatedObjectFrame8mimeTypeEv
_ZNK6TagLib5ID3v230GeneralEncapsulatedObjectFrame8toStringEv
_ZNK6TagLib5ID3v23Tag10propertiesEv
_ZNK6TagLib5ID3v23Tag12frameListMapEv
_ZNK6TagLib5ID3v23Tag14extendedHeaderEv
_ZNK6TagLib5ID3v23Tag15downgradeFramesEPNS_4ListIPNS0_5FrameEEES6_
_ZNK6TagLib5ID3v23Tag4yearEv
_ZNK6TagLib5ID3v23Tag5albumEv
_ZNK6TagLib5ID3v23Tag5genreEv
_ZNK6TagLib5ID3v23Tag5titleEv
_ZNK6TagLib5ID3v23Tag5trackEv
_ZNK6TagLib5ID3v23Tag6artistEv
_ZNK6TagLib5ID3v23Tag6footerEv
_ZNK6TagLib5ID3v23Tag6headerEv
_ZNK6TagLib5ID3v23Tag6renderEi
_ZNK6TagLib5ID3v23Tag6renderEv
_ZNK6TagLib5ID3v23Tag7commentEv
_ZNK6TagLib5ID3v23Tag7isEmptyEv
_ZNK6TagLib5ID3v23Tag9frameListERKNS_10ByteVectorE
_ZNK6TagLib5ID3v23Tag9frameListEv
_ZNK6TagLib5ID3v25Frame12asPropertiesEv
_ZNK6TagLib5ID3v25Frame17checkTextEncodingERKNS_10StringListENS_6String4TypeE
_ZNK6TagLib5ID3v25Frame4sizeEv
_ZNK6TagLib5ID3v25Frame6Header10encryptionEv
_ZNK6TagLib5ID3v25Frame6Header11compressionEv
_ZNK6TagLib5ID3v25Frame6Header15unsycronisationEv
_ZNK6TagLib5ID3v25Frame6Header16groupingIdentityEv
_ZNK6TagLib5ID3v25Frame6Header17unsynchronisationEv
_ZNK6TagLib5ID3v25Frame6Header19dataLengthIndicatorEv
_ZNK6TagLib5ID3v25Frame6Header20tagAlterPreservationEv
_ZNK6TagLib5ID3v25Frame6Header21fileAlterPreservationEv
_ZNK6TagLib5ID3v25Frame6Header22frameAlterPreservationEv
_ZNK6TagLib5ID3v25Frame6Header6renderEv
_ZNK6TagLib5ID3v25Frame6Header7frameIDEv
_ZNK6TagLib5ID3v25Frame6Header7versionEv
_ZNK6TagLib5ID3v25Frame6Header8readOnlyEv
_ZNK6TagLib5ID3v25Frame6Header9frameSizeEv
_ZNK6TagLib5ID3v25Frame6headerEv
_ZNK6TagLib5ID3v25Frame6renderEv
_ZNK6TagLib5ID3v25Frame7frameIDEv
_ZNK6TagLib5ID3v25Frame9fieldDataERKNS_10ByteVectorE
_ZNK6TagLib5ID3v26Footer6renderEPKNS0_6HeaderE
_ZNK6TagLib5ID3v26Header12majorVersionEv
_ZNK6TagLib5ID3v26Header13footerPresentEv
_ZNK6TagLib5ID3v26Header14extendedHeaderEv
_ZNK6TagLib5ID3v26Header14revisionNumberEv
_ZNK6TagLib5ID3v26Header15completeTagSizeEv
_ZNK6TagLib5ID3v26Header17unsynchronisationEv
_ZNK6TagLib5ID3v26Header21experimentalIndicatorEv
_ZNK6TagLib5ID3v26Header6renderEv
_ZNK6TagLib5ID3v26Header7tagSizeEv
_ZNK6TagLib6String10startsWithERKS0_
_ZNK6TagLib6String10toCWStringEv
_ZNK6TagLib6String15stripWhiteSpaceEv
_ZNK6TagLib6String3endB5cxx11Ev
_ZNK6TagLib6String4dataENS0_4TypeE
_ZNK6TagLib6String4findERKS0_i
_ZNK6TagLib6String4sizeEv
_ZNK6TagLib6String5beginB5cxx11Ev
_ZNK6TagLib6String5rfindERKS0_i
_ZNK6TagLib6String5splitERKS0_
_ZNK6TagLib6String5toIntEPb
_ZNK6TagLib6String5toIntEv
_ZNK6TagLib6String5upperEv
_ZNK6TagLib6String6isNullEv
_ZNK6TagLib6String6lengthEv
_ZNK6TagLib6String6substrEjj
_ZNK6TagLib6String6to8BitB5cxx11Eb
_ZNK6TagLib6String7isAsciiEv
_ZNK6TagLib6String7isEmptyEv
_ZNK6TagLib6String8isLatin1Ev
_ZNK6TagLib6String9toCStringEb
_ZNK6TagLib6String9toWStringB5cxx11Ev
_ZNK6TagLib6StringeqEPKc
_ZNK6TagLib6StringeqEPKw
_ZNK6TagLib6StringeqERKS0_
_ZNK6TagLib6StringixEi
_ZNK6TagLib6StringltERKS0_
_ZNK6TagLib6StringneEPKc
_ZNK6TagLib6StringneEPKw
_ZNK6TagLib6StringneERKS0_
_ZNK6TagLib6Vorbis10Properties10sampleRateEv
_ZNK6TagLib6Vorbis10Properties13vorbisVersionEv
_ZNK6TagLib6Vorbis10Properties14bitrateMaximumEv
_ZNK6TagLib6Vorbis10Properties14bitrateMinimumEv
_ZNK6TagLib6Vorbis10Properties14bitrateNominalEv
_ZNK6TagLib6Vorbis10Properties15lengthInSecondsEv
_ZNK6TagLib6Vorbis10Properties20lengthInMillisecondsEv
_ZNK6TagLib6Vorbis10Properties6lengthEv
_ZNK6TagLib6Vorbis10Properties7bitrateEv
_ZNK6TagLib6Vorbis10Properties8channelsEv
_ZNK6TagLib6Vorbis4File10propertiesEv
_ZNK6TagLib6Vorbis4File15audioPropertiesEv
_ZNK6TagLib6Vorbis4File3tagEv
_ZNK6TagLib7FileRef15audioPropertiesEv
_ZNK6TagLib7FileRef3tagEv
_ZNK6TagLib7FileRef4fileEv
_ZNK6TagLib7FileRef6isNullEv
_ZNK6TagLib7FileRefeqERKS0_
_ZNK6TagLib7FileRefneERKS0_
_ZNK6TagLib7WavPack10Properties10isLosslessEv
_ZNK6TagLib7WavPack10Properties10sampleRateEv
_ZNK6TagLib7WavPack10Properties12sampleFramesEv
_ZNK6TagLib7WavPack10Properties13bitsPerSampleEv
_ZNK6TagLib7WavPack10Properties15lengthInSecondsEv
_ZNK6TagLib7WavPack10Properties20lengthInMillisecondsEv
_ZNK6TagLib7WavPack10Properties6lengthEv
_ZNK6TagLib7WavPack10Properties7bitrateEv
_ZNK6TagLib7WavPack10Properties7versionEv
_ZNK6TagLib7WavPack10Properties8channelsEv
_ZNK6TagLib7WavPack4File10propertiesEv
_ZNK6TagLib7WavPack4File11hasID3v1TagEv
_ZNK6TagLib7WavPack4File15audioPropertiesEv
_ZNK6TagLib7WavPack4File3tagEv
_ZNK6TagLib7WavPack4File9hasAPETagEv
_ZNK6TagLib8FileName3strB5cxx11Ev
_ZNK6TagLib8FileName4wstrB5cxx11Ev
_ZNK6TagLib8FileName8toStringEv
_ZNK6TagLib8FileNamecvPKcEv
_ZNK6TagLib8FileNamecvPKwEv
_ZNK6TagLib9TrueAudio10Properties10sampleRateEv
_ZNK6TagLib9TrueAudio10Properties10ttaVersionEv
_ZNK6TagLib9TrueAudio10Properties12sampleFramesEv
_ZNK6TagLib9TrueAudio10Properties13bitsPerSampleEv
_ZNK6TagLib9TrueAudio10Properties15lengthInSecondsEv
_ZNK6TagLib9TrueAudio10Properties20lengthInMillisecondsEv
_ZNK6TagLib9TrueAudio10Properties6lengthEv
_ZNK6TagLib9TrueAudio10Properties7bitrateEv
_ZNK6TagLib9TrueAudio10Properties8channelsEv
_ZNK6TagLib9TrueAudio4File10propertiesEv
_ZNK6TagLib9TrueAudio4File11hasID3v1TagEv
_ZNK6TagLib9TrueAudio4File11hasID3v2TagEv
_ZNK6TagLib9TrueAudio4File15audioPropertiesEv
_ZNK6TagLib9TrueAudio4File3tagEv
_ZTIN6TagLib10ByteVectorE DATA
_ZTIN6TagLib10FileStreamE DATA
_ZTIN6TagLib10RefCounterE DATA
_ZTIN6TagLib10StringListE DATA
_ZTIN6TagLib11PropertyMapE DATA
_ZTIN6TagLib13DebugListenerE DATA
_ZTIN6TagLib14ByteVectorListE DATA
_ZTIN6TagLib15AudioPropertiesE DATA
_ZTIN6TagLib16ByteVectorStreamE DATA
_ZTIN6TagLib2IT10PropertiesE DATA
_ZTIN6TagLib2IT4FileE DATA
_ZTIN6TagLib2XM10PropertiesE DATA
_ZTIN6TagLib2XM4FileE DATA
_ZTIN6TagLib3APE10PropertiesE DATA
_ZTIN6TagLib3APE3TagE DATA
_ZTIN6TagLib3APE4FileE DATA
_ZTIN6TagLib3APE4ItemE DATA
_ZTIN6TagLib3APE6FooterE DATA
_ZTIN6TagLib3ASF10PropertiesE DATA
_ZTIN6TagLib3ASF3TagE DATA
_ZTIN6TagLib3ASF4FileE DATA
_ZTIN6TagLib3ASF7PictureE DATA
_ZTIN6TagLib3ASF9AttributeE DATA
_ZTIN6TagLib3MP410PropertiesE DATA
_ZTIN6TagLib3MP43TagE DATA
_ZTIN6TagLib3MP44FileE DATA
_ZTIN6TagLib3MPC10PropertiesE DATA
_ZTIN6TagLib3MPC4FileE DATA
_ZTIN6TagLib3Mod10PropertiesE DATA
_ZTIN6TagLib3Mod3TagE DATA
_ZTIN6TagLib3Mod4FileE DATA
_ZTIN6TagLib3Mod8FileBaseE DATA
_ZTIN6TagLib3Ogg10PageHeaderE DATA
_ZTIN6TagLib3Ogg11XiphCommentE DATA
_ZTIN6TagLib3Ogg4FLAC4FileE DATA
_ZTIN6TagLib3Ogg4FileE DATA
_ZTIN6TagLib3Ogg4Opus10PropertiesE DATA
_ZTIN6TagLib3Ogg4Opus4FileE DATA
_ZTIN6TagLib3Ogg4PageE DATA
_ZTIN6TagLib3Ogg5Speex10PropertiesE DATA
_ZTIN6TagLib3Ogg5Speex4FileE DATA
_ZTIN6TagLib3S3M10PropertiesE DATA
_ZTIN6TagLib3S3M4FileE DATA
_ZTIN6TagLib3TagE DATA
_ZTIN6TagLib4FLAC10PropertiesE DATA
_ZTIN6TagLib4FLAC13MetadataBlockE DATA
_ZTIN6TagLib4FLAC20UnknownMetadataBlockE DATA
_ZTIN6TagLib4FLAC4FileE DATA
_ZTIN6TagLib4FLAC7PictureE DATA
_ZTIN6TagLib4FileE DATA
_ZTIN6TagLib4MPEG10PropertiesE DATA
_ZTIN6TagLib4MPEG10XingHeaderE DATA
_ZTIN6TagLib4MPEG4FileE DATA
_ZTIN6TagLib4MPEG6HeaderE DATA
_ZTIN6TagLib4RIFF3WAV10PropertiesE DATA
_ZTIN6TagLib4RIFF3WAV4FileE DATA
_ZTIN6TagLib4RIFF4AIFF10PropertiesE DATA
_ZTIN6TagLib4RIFF4AIFF4FileE DATA
_ZTIN6TagLib4RIFF4FileE DATA
_ZTIN6TagLib4RIFF4Info13StringHandlerE DATA
_ZTIN6TagLib4RIFF4Info3TagE DATA
_ZTIN6TagLib5ID3v113StringHandlerE DATA
_ZTIN6TagLib5ID3v13TagE DATA
_ZTIN6TagLib5ID3v212ChapterFrameE DATA
_ZTIN6TagLib5ID3v212FrameFactoryE DATA
_ZTIN6TagLib5ID3v212PodcastFrameE DATA
_ZTIN6TagLib5ID3v212PrivateFrameE DATA
_ZTIN6TagLib5ID3v212UnknownFrameE DATA
_ZTIN6TagLib5ID3v212UrlLinkFrameE DATA
_ZTIN6TagLib5ID3v213CommentsFrameE DATA
_ZTIN6TagLib5ID3v214ExtendedHeaderE DATA
_ZTIN6TagLib5ID3v214OwnershipFrameE DATA
_ZTIN6TagLib5ID3v216UserUrlLinkFrameE DATA
_ZTIN6TagLib5ID3v218PopularimeterFrameE DATA
_ZTIN6TagLib5ID3v219Latin1StringHandlerE DATA
_ZTIN6TagLib5ID3v219RelativeVolumeFrameE DATA
_ZTIN6TagLib5ID3v220AttachedPictureFrameE DATA
_ZTIN6TagLib5ID3v220TableOfContentsFrameE DATA
_ZTIN6TagLib5ID3v221EventTimingCodesFrameE DATA
_ZTIN6TagLib5ID3v223AttachedPictureFrameV22E DATA
_ZTIN6TagLib5ID3v223SynchronizedLyricsFrameE DATA
_ZTIN6TagLib5ID3v223TextIdentificationFrameE DATA
_ZTIN6TagLib5ID3v225UniqueFileIdentifierFrameE DATA
_ZTIN6TagLib5ID3v225UnsynchronizedLyricsFrameE DATA
_ZTIN6TagLib5ID3v227UserTextIdentificationFrameE DATA
_ZTIN6TagLib5ID3v230GeneralEncapsulatedObjectFrameE DATA
_ZTIN6TagLib5ID3v23TagE DATA
_ZTIN6TagLib5ID3v25Frame6HeaderE DATA
_ZTIN6TagLib5ID3v25FrameE DATA
_ZTIN6TagLib5ID3v26FooterE DATA
_ZTIN6TagLib5ID3v26HeaderE DATA
_ZTIN6TagLib6StringE DATA
_ZTIN6TagLib6Vorbis10PropertiesE DATA
_ZTIN6TagLib6Vorbis4FileE DATA
_ZTIN6TagLib7FileRef16FileTypeResolverE DATA
_ZTIN6TagLib7FileRefE DATA
_ZTIN6TagLib7WavPack10PropertiesE DATA
_ZTIN6TagLib7WavPack4FileE DATA
_ZTIN6TagLib8IOStreamE DATA
_ZTIN6TagLib9TrueAudio10PropertiesE DATA
_ZTIN6TagLib9TrueAudio4FileE DATA
_ZTVN6TagLib10ByteVectorE DATA
_ZTVN6TagLib10FileStreamE DATA
_ZTVN6TagLib10RefCounterE DATA
_ZTVN6TagLib10StringListE DATA
_ZTVN6TagLib11PropertyMapE DATA
_ZTVN6TagLib13DebugListenerE DATA
_ZTVN6TagLib14ByteVectorListE DATA
_ZTVN6TagLib15AudioPropertiesE DATA
_ZTVN6TagLib16ByteVectorStreamE DATA
_ZTVN6TagLib2IT10PropertiesE DATA
_ZTVN6TagLib2IT4FileE DATA
_ZTVN6TagLib2XM10PropertiesE DATA
_ZTVN6TagLib2XM4FileE DATA
_ZTVN6TagLib3APE10PropertiesE DATA
_ZTVN6TagLib3APE3TagE DATA
_ZTVN6TagLib3APE4FileE DATA
_ZTVN6TagLib3APE4ItemE DATA
_ZTVN6TagLib3APE6FooterE DATA
_ZTVN6TagLib3ASF10PropertiesE DATA
_ZTVN6TagLib3ASF3TagE DATA
_ZTVN6TagLib3ASF4FileE DATA
_ZTVN6TagLib3ASF7PictureE DATA
_ZTVN6TagLib3ASF9AttributeE DATA
_ZTVN6TagLib3MP410PropertiesE DATA
_ZTVN6TagLib3MP43TagE DATA
_ZTVN6TagLib3MP44FileE DATA
_ZTVN6TagLib3MPC10PropertiesE DATA
_ZTVN6TagLib3MPC4FileE DATA
_ZTVN6TagLib3Mod10PropertiesE DATA
_ZTVN6TagLib3Mod3TagE DATA
_ZTVN6TagLib3Mod4FileE DATA
_ZTVN6TagLib3Mod8FileBaseE DATA
_ZTVN6TagLib3Ogg10PageHeaderE DATA
_ZTVN6TagLib3Ogg11XiphCommentE DATA
_ZTVN6TagLib3Ogg4FLAC4FileE DATA
_ZTVN6TagLib3Ogg4FileE DATA
_ZTVN6TagLib3Ogg4Opus10PropertiesE DATA
_ZTVN6TagLib3Ogg4Opus4FileE DATA
_ZTVN6TagLib3Ogg4PageE DATA
_ZTVN6TagLib3Ogg5Speex10PropertiesE DATA
_ZTVN6TagLib3Ogg5Speex4FileE DATA
_ZTVN6TagLib3S3M10PropertiesE DATA
_ZTVN6TagLib3S3M4FileE DATA
_ZTVN6TagLib3TagE DATA
_ZTVN6TagLib4FLAC10PropertiesE DATA
_ZTVN6TagLib4FLAC13MetadataBlockE DATA
_ZTVN6TagLib4FLAC20UnknownMetadataBlockE DATA
_ZTVN6TagLib4FLAC4FileE DATA
_ZTVN6TagLib4FLAC7PictureE DATA
_ZTVN6TagLib4FileE DATA
_ZTVN6TagLib4MPEG10PropertiesE DATA
_ZTVN6TagLib4MPEG10XingHeaderE DATA
_ZTVN6TagLib4MPEG4FileE DATA
_ZTVN6TagLib4MPEG6HeaderE DATA
_ZTVN6TagLib4RIFF3WAV10PropertiesE DATA
_ZTVN6TagLib4RIFF3WAV4FileE DATA
_ZTVN6TagLib4RIFF4AIFF10PropertiesE DATA
_ZTVN6TagLib4RIFF4AIFF4FileE DATA
_ZTVN6TagLib4RIFF4FileE DATA
_ZTVN6TagLib4RIFF4Info13StringHandlerE DATA
_ZTVN6TagLib4RIFF4Info3TagE DATA
_ZTVN6TagLib5ID3v113StringHandlerE DATA
_ZTVN6TagLib5ID3v13TagE DATA
_ZTVN6TagLib5ID3v212ChapterFrameE DATA
_ZTVN6TagLib5ID3v212FrameFactoryE DATA
_ZTVN6TagLib5ID3v212PodcastFrameE DATA
_ZTVN6TagLib5ID3v212PrivateFrameE DATA
_ZTVN6TagLib5ID3v212UnknownFrameE DATA
_ZTVN6TagLib5ID3v212UrlLinkFrameE DATA
_ZTVN6TagLib5ID3v213CommentsFrameE DATA
_ZTVN6TagLib5ID3v214ExtendedHeaderE DATA
_ZTVN6TagLib5ID3v214OwnershipFrameE DATA
_ZTVN6TagLib5ID3v216UserUrlLinkFrameE DATA
_ZTVN6TagLib5ID3v218PopularimeterFrameE DATA
_ZTVN6TagLib5ID3v219Latin1StringHandlerE DATA
_ZTVN6TagLib5ID3v219RelativeVolumeFrameE DATA
_ZTVN6TagLib5ID3v220AttachedPictureFrameE DATA
_ZTVN6TagLib5ID3v220TableOfContentsFrameE DATA
_ZTVN6TagLib5ID3v221EventTimingCodesFrameE DATA
_ZTVN6TagLib5ID3v223AttachedPictureFrameV22E DATA
_ZTVN6TagLib5ID3v223SynchronizedLyricsFrameE DATA
_ZTVN6TagLib5ID3v223TextIdentificationFrameE DATA
_ZTVN6TagLib5ID3v225UniqueFileIdentifierFrameE DATA
_ZTVN6TagLib5ID3v225UnsynchronizedLyricsFrameE DATA
_ZTVN6TagLib5ID3v227UserTextIdentificationFrameE DATA
_ZTVN6TagLib5ID3v230GeneralEncapsulatedObjectFrameE DATA
_ZTVN6TagLib5ID3v23TagE DATA
_ZTVN6TagLib5ID3v25Frame6HeaderE DATA
_ZTVN6TagLib5ID3v25FrameE DATA
_ZTVN6TagLib5ID3v26FooterE DATA
_ZTVN6TagLib5ID3v26HeaderE DATA
_ZTVN6TagLib6StringE DATA
_ZTVN6TagLib6Vorbis10PropertiesE DATA
_ZTVN6TagLib6Vorbis4FileE DATA
_ZTVN6TagLib7FileRef16FileTypeResolverE DATA
_ZTVN6TagLib7FileRefE DATA
_ZTVN6TagLib7WavPack10PropertiesE DATA
_ZTVN6TagLib7WavPack4FileE DATA
_ZTVN6TagLib8IOStreamE DATA
_ZTVN6TagLib9TrueAudio10PropertiesE DATA
_ZTVN6TagLib9TrueAudio4FileE DATA
_ZlsRSoRKN6TagLib10ByteVectorE
_ZlsRSoRKN6TagLib6StringE
_ZplPKcRKN6TagLib6StringE
_ZplRKN6TagLib6StringEPKc
_ZplRKN6TagLib6StringES2_
