;
; Definition file of libwebrtc_audio_processing-0.dll
; Automatic generated by gendef
; written by Kai Tietz 2008
;
LIBRARY "libwebrtc_audio_processing-0.dll"
EXPORTS
WebRtcAec_BufferFarend
WebRtcAec_BufferFarendPartition
WebRtcAec_ComfortNoise DATA
WebRtcAec_Create
WebRtcAec_CreateAec
WebRtcAec_CreateResampler
WebRtcAec_FilterAdaptation DATA
WebRtcAec_FilterFar DATA
WebRtcAec_Free
WebRtcAec_FreeAec
WebRtcAec_FreeResampler
WebRtcAec_GetDelayMetrics
WebRtcAec_GetDelayMetricsCore
WebRtcAec_GetEchoStats
WebRtcAec_GetMetrics
WebRtcAec_GetSkew
WebRtcAec_Init
WebRtcAec_InitAec
WebRtcAec_InitAec_SSE2
WebRtcAec_InitResampler
WebRtcAec_MoveFarReadPtr
WebRtcAec_OverdriveAndSuppress DATA
WebRtcAec_Process
WebRtcAec_ProcessFrames
WebRtcAec_ResampleLinear
WebRtcAec_ScaleErrorSignal DATA
WebRtcAec_SetConfigCore
WebRtcAec_SetSystemDelay
WebRtcAec_SubbandCoherence DATA
WebRtcAec_aec_core
WebRtcAec_delay_agnostic_enabled
WebRtcAec_echo_state
WebRtcAec_enable_delay_agnostic
WebRtcAec_enable_extended_filter
WebRtcAec_extended_filter_enabled
WebRtcAec_get_echo_status
WebRtcAec_get_error_code
WebRtcAec_kExtendedSmoothingCoefficients DATA
WebRtcAec_kMinFarendPSD DATA
WebRtcAec_kNormalSmoothingCoefficients DATA
WebRtcAec_overDriveCurve DATA
WebRtcAec_set_config
WebRtcAec_sqrtHanning DATA
WebRtcAec_system_delay
WebRtcAec_weightCurve DATA
WebRtcAecm_AlignedFarend
WebRtcAecm_AsymFilt
WebRtcAecm_BufferFarFrame
WebRtcAecm_BufferFarend
WebRtcAecm_CalcEnergies
WebRtcAecm_CalcLinearEnergies DATA
WebRtcAecm_CalcStepSize
WebRtcAecm_CalcSuppressionGain
WebRtcAecm_Control
WebRtcAecm_Create
WebRtcAecm_CreateCore
WebRtcAecm_FetchFarFrame
WebRtcAecm_Free
WebRtcAecm_FreeCore
WebRtcAecm_GetEchoPath
WebRtcAecm_Init
WebRtcAecm_InitCore
WebRtcAecm_InitEchoPath
WebRtcAecm_InitEchoPathCore
WebRtcAecm_Process
WebRtcAecm_ProcessBlock
WebRtcAecm_ProcessFrame
WebRtcAecm_ResetAdaptiveChannel DATA
WebRtcAecm_StoreAdaptiveChannel DATA
WebRtcAecm_UpdateChannel
WebRtcAecm_UpdateFarHistory
WebRtcAecm_echo_path_size_bytes
WebRtcAecm_get_config
WebRtcAecm_get_error_code
WebRtcAecm_kCosTable DATA
WebRtcAecm_kSinTable DATA
WebRtcAecm_set_config
WebRtcAgc_AddFarend
WebRtcAgc_AddFarendToDigital
WebRtcAgc_AddMic
WebRtcAgc_CalculateGainTable
WebRtcAgc_Create
WebRtcAgc_ExpCurve
WebRtcAgc_Free
WebRtcAgc_Init
WebRtcAgc_InitDigital
WebRtcAgc_InitVad
WebRtcAgc_Process
WebRtcAgc_ProcessAnalog
WebRtcAgc_ProcessDigital
WebRtcAgc_ProcessVad
WebRtcAgc_SaturationCtrl
WebRtcAgc_SpeakerInactiveCtrl
WebRtcAgc_UpdateAgcThresholds
WebRtcAgc_VirtualMic
WebRtcAgc_ZeroCtrl
WebRtcAgc_get_config
WebRtcAgc_set_config
WebRtcIsac_AllPoleFilter
WebRtcIsac_AllZeroFilter
WebRtcIsac_AllpassFilterForDec
WebRtcIsac_AutoCorr
WebRtcIsac_BwExpand
WebRtcIsac_DecimateAllpass
WebRtcIsac_FilterAndCombineFloat
WebRtcIsac_GetLpcCoefLb
WebRtcIsac_GetLpcCoefUb
WebRtcIsac_GetLpcGain
WebRtcIsac_GetVars
WebRtcIsac_GetVarsUB
WebRtcIsac_Highpass
WebRtcIsac_InitMasking
WebRtcIsac_InitPitchAnalysis
WebRtcIsac_InitPitchFilter
WebRtcIsac_InitPostFilterbank
WebRtcIsac_InitPreFilterbank
WebRtcIsac_InitWeightingFilter
WebRtcIsac_InitializePitch
WebRtcIsac_LevDurb
WebRtcIsac_PitchAnalysis
WebRtcIsac_PitchfilterPost
WebRtcIsac_PitchfilterPre
WebRtcIsac_PitchfilterPre_gains
WebRtcIsac_PitchfilterPre_la
WebRtcIsac_SplitAndFilterFloat
WebRtcIsac_WeightingFilter
WebRtcIsac_ZeroPoleFilter
WebRtcIsac_kCompositeApFactorsFloat DATA
WebRtcIsac_kLowerApFactorsFloat DATA
WebRtcIsac_kTransform1Float DATA
WebRtcIsac_kTransform2Float DATA
WebRtcIsac_kUpperApFactorsFloat DATA
WebRtcNs_Analyze
WebRtcNs_AnalyzeCore
WebRtcNs_Create
WebRtcNs_Free
WebRtcNs_Init
WebRtcNs_InitCore
WebRtcNs_Process
WebRtcNs_ProcessCore
WebRtcNs_prior_speech_probability
WebRtcNs_set_policy
WebRtcNs_set_policy_core
WebRtcSpl_32khzTo22khzIntToInt
WebRtcSpl_AllPassQMF
WebRtcSpl_AnalysisQMF
WebRtcSpl_ComplexBitReverse
WebRtcSpl_ComplexFFT
WebRtcSpl_ComplexIFFT
WebRtcSpl_CopyFromEndW16
WebRtcSpl_CreateRealFFT
WebRtcSpl_CrossCorrelation DATA
WebRtcSpl_CrossCorrelationC
WebRtcSpl_DivResultInQ31
WebRtcSpl_DivU32U16
WebRtcSpl_DivW32HiLow
WebRtcSpl_DivW32W16
WebRtcSpl_DivW32W16ResW16
WebRtcSpl_DotProductWithScale
WebRtcSpl_DownBy2IntToShort
WebRtcSpl_DownBy2ShortToInt
WebRtcSpl_DownsampleBy2
WebRtcSpl_DownsampleFast DATA
WebRtcSpl_DownsampleFastC
WebRtcSpl_Energy
WebRtcSpl_FreeRealFFT
WebRtcSpl_GetScalingSquare
WebRtcSpl_Init
WebRtcSpl_LPBy2IntToInt
WebRtcSpl_LPBy2ShortToInt
WebRtcSpl_MaxAbsIndexW16
WebRtcSpl_MaxAbsValueW16 DATA
WebRtcSpl_MaxAbsValueW16C
WebRtcSpl_MaxAbsValueW32 DATA
WebRtcSpl_MaxAbsValueW32C
WebRtcSpl_MaxIndexW16
WebRtcSpl_MaxIndexW32
WebRtcSpl_MaxValueW16 DATA
WebRtcSpl_MaxValueW16C
WebRtcSpl_MaxValueW32 DATA
WebRtcSpl_MaxValueW32C
WebRtcSpl_MemCpyReversedOrder
WebRtcSpl_MemSetW16
WebRtcSpl_MemSetW32
WebRtcSpl_MinIndexW16
WebRtcSpl_MinIndexW32
WebRtcSpl_MinValueW16 DATA
WebRtcSpl_MinValueW16C
WebRtcSpl_MinValueW32 DATA
WebRtcSpl_MinValueW32C
WebRtcSpl_RandN
WebRtcSpl_RandU
WebRtcSpl_RandUArray
WebRtcSpl_RealForwardFFT
WebRtcSpl_RealInverseFFT
WebRtcSpl_Resample16khzTo22khz
WebRtcSpl_Resample16khzTo48khz
WebRtcSpl_Resample22khzTo16khz
WebRtcSpl_Resample22khzTo8khz
WebRtcSpl_Resample32khzTo24khz
WebRtcSpl_Resample44khzTo32khz
WebRtcSpl_Resample48khzTo16khz
WebRtcSpl_Resample48khzTo32khz
WebRtcSpl_Resample48khzTo8khz
WebRtcSpl_Resample8khzTo22khz
WebRtcSpl_Resample8khzTo48khz
WebRtcSpl_ResetResample16khzTo22khz
WebRtcSpl_ResetResample16khzTo48khz
WebRtcSpl_ResetResample22khzTo16khz
WebRtcSpl_ResetResample22khzTo8khz
WebRtcSpl_ResetResample48khzTo16khz
WebRtcSpl_ResetResample48khzTo8khz
WebRtcSpl_ResetResample8khzTo22khz
WebRtcSpl_ResetResample8khzTo48khz
WebRtcSpl_ScaleAndAddVectors
WebRtcSpl_ScaleAndAddVectorsWithRound DATA
WebRtcSpl_ScaleAndAddVectorsWithRoundC
WebRtcSpl_ScaleVector
WebRtcSpl_ScaleVectorWithSat
WebRtcSpl_Sqrt
WebRtcSpl_SqrtFloor
WebRtcSpl_SqrtLocal
WebRtcSpl_SynthesisQMF
WebRtcSpl_UpBy2IntToInt
WebRtcSpl_UpBy2IntToShort
WebRtcSpl_UpBy2ShortToInt
WebRtcSpl_UpsampleBy2
WebRtcSpl_VectorBitShiftW16
WebRtcSpl_VectorBitShiftW32
WebRtcSpl_VectorBitShiftW32ToW16
WebRtcSpl_ZerosArrayW16
WebRtcSpl_ZerosArrayW32
WebRtcVad_CalcVad16khz
WebRtcVad_CalcVad32khz
WebRtcVad_CalcVad48khz
WebRtcVad_CalcVad8khz
WebRtcVad_CalculateFeatures
WebRtcVad_Create
WebRtcVad_Downsampling
WebRtcVad_FindMinimum
WebRtcVad_Free
WebRtcVad_GaussianProbability
WebRtcVad_Init
WebRtcVad_InitCore
WebRtcVad_Process
WebRtcVad_ValidRateAndFrameLength
WebRtcVad_set_mode
WebRtcVad_set_mode_core
WebRtc_AddBinaryFarSpectrum
WebRtc_AddFarSpectrumFix
WebRtc_AddFarSpectrumFloat
WebRtc_AllocateFarendBufferMemory
WebRtc_AllocateHistoryBufferMemory
WebRtc_CreateBinaryDelayEstimator
WebRtc_CreateBinaryDelayEstimatorFarend
WebRtc_CreateBuffer
WebRtc_CreateDelayEstimator
WebRtc_CreateDelayEstimatorFarend
WebRtc_DelayEstimatorProcessFix
WebRtc_DelayEstimatorProcessFloat
WebRtc_FreeBinaryDelayEstimator
WebRtc_FreeBinaryDelayEstimatorFarend
WebRtc_FreeBuffer
WebRtc_FreeDelayEstimator
WebRtc_FreeDelayEstimatorFarend
WebRtc_GetCPUInfo DATA
WebRtc_GetCPUInfoNoASM DATA
WebRtc_InitBinaryDelayEstimator
WebRtc_InitBinaryDelayEstimatorFarend
WebRtc_InitBuffer
WebRtc_InitDelayEstimator
WebRtc_InitDelayEstimatorFarend
WebRtc_MeanEstimatorFix
WebRtc_MoveReadPtr
WebRtc_ProcessBinarySpectrum
WebRtc_ReadBuffer
WebRtc_SoftResetBinaryDelayEstimator
WebRtc_SoftResetBinaryDelayEstimatorFarend
WebRtc_SoftResetDelayEstimator
WebRtc_SoftResetDelayEstimatorFarend
WebRtc_WriteBuffer
WebRtc_available_read
WebRtc_available_write
WebRtc_binary_last_delay
WebRtc_binary_last_delay_quality
WebRtc_enable_robust_validation
WebRtc_get_allowed_offset
WebRtc_history_size
WebRtc_is_robust_validation_enabled
WebRtc_last_delay
WebRtc_last_delay_quality
WebRtc_lookahead
WebRtc_rdft
WebRtc_set_allowed_offset
WebRtc_set_history_size
WebRtc_set_lookahead
_Z11Db2Loudnessd
_Z11Loudness2Dbd
_Z13Dbfs2Loudnessd
_Z15GetCPUInfoNoASM10CPUFeature
_Z15Linear2Loudnessd
_Z27GetSubframesPitchParametersiPdS_iiS_S_S_S_
_Z6printfPKcz
_Z7sprintfPcPKcz
_ZGVZN6webrtc6Config13default_valueINS_11BeamformingEEERKT_vE3def DATA
_ZGVZN6webrtc6Config13default_valueINS_13DelayAgnosticEEERKT_vE3def DATA
_ZGVZN6webrtc6Config13default_valueINS_14ExperimentalNsEEERKT_vE3def DATA
_ZGVZN6webrtc6Config13default_valueINS_14ExtendedFilterEEERKT_vE3def DATA
_ZGVZN6webrtc6Config13default_valueINS_15ExperimentalAgcEEERKT_vE3def DATA
_ZGVZN6webrtc6Config13default_valueINS_15IntelligibilityEEERKT_vE3def DATA
_ZN3rtc10GlobalLockC1Ev
_ZN3rtc10GlobalLockC2Ev
_ZN3rtc10PrintErrorEPKcz
_ZN3rtc11VPrintErrorEPKcPc
_ZN3rtc12FatalMessage4InitEPKci
_ZN3rtc12FatalMessageC1EPKci
_ZN3rtc12FatalMessageC1EPKciPNSt7__cxx1112basic_stringIcSt11char_traitsIcESaIcEEE
_ZN3rtc12FatalMessageC2EPKci
_ZN3rtc12FatalMessageC2EPKciPNSt7__cxx1112basic_stringIcSt11char_traitsIcESaIcEEE
_ZN3rtc12FatalMessageD1Ev
_ZN3rtc12FatalMessageD2Ev
_ZN3rtc12TryCritScopeC1EPNS_15CriticalSectionE
_ZN3rtc12TryCritScopeC2EPNS_15CriticalSectionE
_ZN3rtc12TryCritScopeD1Ev
_ZN3rtc12TryCritScopeD2Ev
_ZN3rtc13DumpBacktraceEv
_ZN3rtc13GlobalLockPod4LockEv
_ZN3rtc13GlobalLockPod6UnlockEv
_ZN3rtc15CheckedDivExactIyEET_S1_S1_
_ZN3rtc15CriticalSection5EnterEv
_ZN3rtc15CriticalSection5LeaveEv
_ZN3rtc15CriticalSection8TryEnterEv
_ZN3rtc15CriticalSectionC1Ev
_ZN3rtc15CriticalSectionC2Ev
_ZN3rtc15CriticalSectionD1Ev
_ZN3rtc15CriticalSectionD2Ev
_ZN3rtc15CurrentThreadIdEv
_ZN3rtc15GlobalLockScopeC1EPNS_13GlobalLockPodE
_ZN3rtc15GlobalLockScopeC2EPNS_13GlobalLockPodE
_ZN3rtc15GlobalLockScopeD1Ev
_ZN3rtc15GlobalLockScopeD2Ev
_ZN3rtc16CurrentThreadRefEv
_ZN3rtc16IsThreadRefEqualERKmS1_
_ZN3rtc17ClosePlatformFileEPv
_ZN3rtc17MakeCheckOpStringINSt7__cxx1112basic_stringIcSt11char_traitsIcESaIcEEES6_EEPS6_RKT_RKT0_PKc
_ZN3rtc17MakeCheckOpStringIiiEEPNSt7__cxx1112basic_stringIcSt11char_traitsIcESaIcEEERKT_RKT0_PKc
_ZN3rtc17MakeCheckOpStringIjmEEPNSt7__cxx1112basic_stringIcSt11char_traitsIcESaIcEEERKT_RKT0_PKc
_ZN3rtc17MakeCheckOpStringImjEEPNSt7__cxx1112basic_stringIcSt11char_traitsIcESaIcEEERKT_RKT0_PKc
_ZN3rtc17MakeCheckOpStringImmEEPNSt7__cxx1112basic_stringIcSt11char_traitsIcESaIcEEERKT_RKT0_PKc
_ZN3rtc17MakeCheckOpStringIyjEEPNSt7__cxx1112basic_stringIcSt11char_traitsIcESaIcEEERKT_RKT0_PKc
_ZN3rtc17MakeCheckOpStringIyyEEPNSt7__cxx1112basic_stringIcSt11char_traitsIcESaIcEEERKT_RKT0_PKc
_ZN3rtc20SetCurrentThreadNameEPKc
_ZN3rtc25kInvalidPlatformFileValueE DATA
_ZN3rtc28FdopenPlatformFileForWritingEPv
_ZN3rtc8internal15scoped_ptr_implIN6webrtc9HistogramENS_14DefaultDeleterIS3_EEED1Ev
_ZN3rtc9CritScopeC1EPNS_15CriticalSectionE
_ZN3rtc9CritScopeC2EPNS_15CriticalSectionE
_ZN3rtc9CritScopeD1Ev
_ZN3rtc9CritScopeD2Ev
_ZN6webrtc10DotProductERKNS_14CartesianPointIfEES3_
_ZN6webrtc10FIRFilterC6FilterEPKfyPf
_ZN6webrtc10FIRFilterCC1EPKfy
_ZN6webrtc10FIRFilterCC2EPKfy
_ZN6webrtc10FIRFilterCD0Ev
_ZN6webrtc10FIRFilterCD1Ev
_ZN6webrtc10FloatToS16EPKfyPs
_ZN6webrtc10LogMessage8LoggableENS_15LoggingSeverityE
_ZN6webrtc10LogMessageC1EPKciNS_15LoggingSeverityE
_ZN6webrtc10LogMessageC2EPKciNS_15LoggingSeverityE
_ZN6webrtc10LogMessageD1Ev
_ZN6webrtc10LogMessageD2Ev
_ZN6webrtc10S16ToFloatEPKsyPf
_ZN6webrtc11AlignedFreeEPv
_ZN6webrtc11AreParallelERKNS_14CartesianPointIfEES3_
_ZN6webrtc11AudioBuffer10channels_fEv
_ZN6webrtc11AudioBuffer10split_dataEv
_ZN6webrtc11AudioBuffer11split_bandsEi
_ZN6webrtc11AudioBuffer12InterleaveToEPNS_10AudioFrameEb
_ZN6webrtc11AudioBuffer12set_activityENS_10AudioFrame11VADActivityE
_ZN6webrtc11AudioBuffer12split_data_fEv
_ZN6webrtc11AudioBuffer13split_bands_fEi
_ZN6webrtc11AudioBuffer14InitForNewDataEv
_ZN6webrtc11AudioBuffer14split_channelsENS_4BandE
_ZN6webrtc11AudioBuffer16DeinterleaveFromEPNS_10AudioFrameE
_ZN6webrtc11AudioBuffer16set_num_channelsEi
_ZN6webrtc11AudioBuffer16split_channels_fENS_4BandE
_ZN6webrtc11AudioBuffer19MergeFrequencyBandsEv
_ZN6webrtc11AudioBuffer19mixed_low_pass_dataEv
_ZN6webrtc11AudioBuffer22CopyLowPassToReferenceEv
_ZN6webrtc11AudioBuffer23SplitIntoFrequencyBandsEv
_ZN6webrtc11AudioBuffer4dataEv
_ZN6webrtc11AudioBuffer6CopyToERKNS_12StreamConfigEPKPf
_ZN6webrtc11AudioBuffer6data_fEv
_ZN6webrtc11AudioBuffer8CopyFromEPKPKfRKNS_12StreamConfigE
_ZN6webrtc11AudioBuffer8channelsEv
_ZN6webrtc11AudioBufferC1Eyiyiy
_ZN6webrtc11AudioBufferC2Eyiyiy
_ZN6webrtc11AudioBufferD0Ev
_ZN6webrtc11AudioBufferD1Ev
_ZN6webrtc11AudioBufferD2Ev
_ZN6webrtc11EvaluateGmmEPKdRKNS_13GmmParametersE
_ZN6webrtc11FileWrapper6CreateEv
_ZN6webrtc11FileWrapper6RewindEv
_ZN6webrtc11RealFourier13ComplexLengthEi
_ZN6webrtc11RealFourier15AllocCplxBufferEi
_ZN6webrtc11RealFourier15AllocRealBufferEi
_ZN6webrtc11RealFourier19kFftBufferAlignmentE DATA
_ZN6webrtc11RealFourier6CreateEi
_ZN6webrtc11RealFourier8FftOrderEy
_ZN6webrtc11RealFourier9FftLengthEi
_ZN6webrtc12AlignedArrayISt7complexIfEED1Ev
_ZN6webrtc12CrossProductERKNS_14CartesianPointIfEES3_
_ZN6webrtc12ScopedVectorINS_13ChannelBufferIfEEED1Ev
_ZN6webrtc12ScopedVectorINS_14AudioConverterEED1Ev
_ZN6webrtc12ScopedVectorINS_15SparseFIRFilterEED1Ev
_ZN6webrtc12ScopedVectorINS_17PushSincResamplerEED1Ev
_ZN6webrtc12TraceWindowsC1Ev
_ZN6webrtc12TraceWindowsC2Ev
_ZN6webrtc12TraceWindowsD0Ev
_ZN6webrtc12TraceWindowsD1Ev
_ZN6webrtc12TraceWindowsD2Ev
_ZN6webrtc12VadAudioProc11ResetBufferEv
_ZN6webrtc12VadAudioProc13PitchAnalysisEPdS1_y
_ZN6webrtc12VadAudioProc15ExtractFeaturesEPKsyP13AudioFeatures
_ZN6webrtc12VadAudioProc17GetLpcPolynomialsEPdy
_ZN6webrtc12VadAudioProc19SubframeCorrelationEPdyy
_ZN6webrtc12VadAudioProc22FindFirstSpectralPeaksEPdy
_ZN6webrtc12VadAudioProc3RmsEPdy
_ZN6webrtc12VadAudioProcC1Ev
_ZN6webrtc12VadAudioProcC2Ev
_ZN6webrtc12VadAudioProcD1Ev
_ZN6webrtc12VadAudioProcD2Ev
_ZN6webrtc13AlignedMallocEyy
_ZN6webrtc13ChannelBufferIfED1Ev
_ZN6webrtc13ComplexMatrixIfED0Ev
_ZN6webrtc13ComplexMatrixIfED1Ev
_ZN6webrtc13CopyConverter7ConvertEPKPKfyPKPfy
_ZN6webrtc13CopyConverterD0Ev
_ZN6webrtc13CopyConverterD1Ev
_ZN6webrtc13FIRFilterSSE26FilterEPKfyPf
_ZN6webrtc13FIRFilterSSE2C1EPKfyy
_ZN6webrtc13FIRFilterSSE2C2EPKfyy
_ZN6webrtc13FIRFilterSSE2D0Ev
_ZN6webrtc13FIRFilterSSE2D1Ev
_ZN6webrtc13FloatS16ToS16EPKfyPs
_ZN6webrtc13GetRightAlignEPKvy
_ZN6webrtc13GetRightAlignEyy
_ZN6webrtc13MovingMoments16CalculateMomentsEPKfyPfS3_
_ZN6webrtc13MovingMomentsC1Ey
_ZN6webrtc13MovingMomentsC2Ey
_ZN6webrtc13MovingMomentsD1Ev
_ZN6webrtc13MovingMomentsD2Ev
_ZN6webrtc13PairDirectionERKNS_14CartesianPointIfEES3_
_ZN6webrtc13PitchBasedVad11UpdatePriorEd
_ZN6webrtc13PitchBasedVad18VoicingProbabilityERK13AudioFeaturesPd
_ZN6webrtc13PitchBasedVadC1Ev
_ZN6webrtc13PitchBasedVadC2Ev
_ZN6webrtc13PitchBasedVadD1Ev
_ZN6webrtc13PitchBasedVadD2Ev
_ZN6webrtc13RWLockGeneric17AcquireLockSharedEv
_ZN6webrtc13RWLockGeneric17ReleaseLockSharedEv
_ZN6webrtc13RWLockGeneric20AcquireLockExclusiveEv
_ZN6webrtc13RWLockGeneric20ReleaseLockExclusiveEv
_ZN6webrtc13RWLockGenericC1Ev
_ZN6webrtc13RWLockGenericC2Ev
_ZN6webrtc13RWLockGenericD0Ev
_ZN6webrtc13RWLockGenericD1Ev
_ZN6webrtc13RWLockGenericD2Ev
_ZN6webrtc13RWLockWrapper12CreateRWLockEv
_ZN6webrtc13SincResampler10Convolve_CEPKfS2_S2_d
_ZN6webrtc13SincResampler12Convolve_SSEEPKfS2_S2_d
_ZN6webrtc13SincResampler13UpdateRegionsEb
_ZN6webrtc13SincResampler16InitializeKernelEv
_ZN6webrtc13SincResampler29InitializeCPUSpecificFeaturesEv
_ZN6webrtc13SincResampler5FlushEv
_ZN6webrtc13SincResampler8ResampleEyPf
_ZN6webrtc13SincResampler8SetRatioEd
_ZN6webrtc13SincResamplerC1EdyPNS_21SincResamplerCallbackE
_ZN6webrtc13SincResamplerC2EdyPNS_21SincResamplerCallbackE
_ZN6webrtc13SincResamplerD0Ev
_ZN6webrtc13SincResamplerD1Ev
_ZN6webrtc13SincResamplerD2Ev
_ZN6webrtc13StandaloneVad11GetActivityEPdy
_ZN6webrtc13StandaloneVad6CreateEv
_ZN6webrtc13StandaloneVad8AddAudioEPKsy
_ZN6webrtc13StandaloneVad8set_modeEi
_ZN6webrtc13StandaloneVadC1EP13WebRtcVadInst
_ZN6webrtc13StandaloneVadC2EP13WebRtcVadInst
_ZN6webrtc13StandaloneVadD1Ev
_ZN6webrtc13StandaloneVadD2Ev
_ZN6webrtc13ThreadWindows11SetPriorityENS_14ThreadPriorityE
_ZN6webrtc13ThreadWindows11StartThreadEPv
_ZN6webrtc13ThreadWindows3RunEv
_ZN6webrtc13ThreadWindows4StopEv
_ZN6webrtc13ThreadWindows5StartEv
_ZN6webrtc13ThreadWindowsC1EPFbPvES1_PKc
_ZN6webrtc13ThreadWindowsC2EPFbPvES1_PKc
_ZN6webrtc13ThreadWindowsD0Ev
_ZN6webrtc13ThreadWindowsD1Ev
_ZN6webrtc13ThreadWindowsD2Ev
_ZN6webrtc13ThreadWrapper11GetThreadIdEv
_ZN6webrtc14AudioConverter6CreateEiyiy
_ZN6webrtc14AudioConverterC1Eiyiy
_ZN6webrtc14AudioConverterC1Ev
_ZN6webrtc14AudioConverterC2Eiyiy
_ZN6webrtc14AudioConverterC2Ev
_ZN6webrtc14AzimuthToPointEf
_ZN6webrtc14PoleZeroFilter6CreateEPKfyS2_y
_ZN6webrtc14PoleZeroFilter6FilterEPKsyPf
_ZN6webrtc14PoleZeroFilterC1EPKfyS2_y
_ZN6webrtc14PoleZeroFilterC2EPKfyS2_y
_ZN6webrtc14UpmixConverter7ConvertEPKPKfyPKPfy
_ZN6webrtc14UpmixConverterD0Ev
_ZN6webrtc14UpmixConverterD1Ev
_ZN6webrtc14ValidAlignmentEy
_ZN6webrtc15AudioProcessing20kMaxAECMSampleRateHzE DATA
_ZN6webrtc15AudioProcessing20kNativeSampleRatesHzE DATA
_ZN6webrtc15AudioProcessing21kNumNativeSampleRatesE DATA
_ZN6webrtc15AudioProcessing22kMaxNativeSampleRateHzE DATA
_ZN6webrtc15AudioProcessing6CreateERKNS_6ConfigE
_ZN6webrtc15AudioProcessing6CreateERKNS_6ConfigEPNS_10BeamformerIfEE
_ZN6webrtc15AudioProcessing6CreateEv
_ZN6webrtc15AudioRingBuffer23MoveReadPositionForwardEy
_ZN6webrtc15AudioRingBuffer24MoveReadPositionBackwardEy
_ZN6webrtc15AudioRingBuffer4ReadEPKPfyy
_ZN6webrtc15AudioRingBuffer5WriteEPKPKfyy
_ZN6webrtc15AudioRingBufferC1Eyy
_ZN6webrtc15AudioRingBufferC2Eyy
_ZN6webrtc15AudioRingBufferD1Ev
_ZN6webrtc15AudioRingBufferD2Ev
_ZN6webrtc15FileWrapperImpl13CloseFileImplEv
_ZN6webrtc15FileWrapperImpl14SetMaxFileSizeEy
_ZN6webrtc15FileWrapperImpl18OpenFromFileHandleEP6_iobufbbb
_ZN6webrtc15FileWrapperImpl4ReadEPvy
_ZN6webrtc15FileWrapperImpl5FlushEv
_ZN6webrtc15FileWrapperImpl5WriteEPKvy
_ZN6webrtc15FileWrapperImpl6RewindEv
_ZN6webrtc15FileWrapperImpl8OpenFileEPKcbbb
_ZN6webrtc15FileWrapperImpl9CloseFileEv
_ZN6webrtc15FileWrapperImpl9FlushImplEv
_ZN6webrtc15FileWrapperImpl9WriteTextEPKcz
_ZN6webrtc15FileWrapperImplC1Ev
_ZN6webrtc15FileWrapperImplC2Ev
_ZN6webrtc15FileWrapperImplD0Ev
_ZN6webrtc15FileWrapperImplD1Ev
_ZN6webrtc15FileWrapperImplD2Ev
_ZN6webrtc15FloatS16ToFloatEPKfyPf
_ZN6webrtc15FloatToFloatS16EPKfyPf
_ZN6webrtc15GainControlImpl10InitializeEv
_ZN6webrtc15GainControlImpl14enable_limiterEb
_ZN6webrtc15GainControlImpl18ProcessRenderAudioEPNS_11AudioBufferE
_ZN6webrtc15GainControlImpl19AnalyzeCaptureAudioEPNS_11AudioBufferE
_ZN6webrtc15GainControlImpl19ProcessCaptureAudioEPNS_11AudioBufferE
_ZN6webrtc15GainControlImpl19stream_analog_levelEv
_ZN6webrtc15GainControlImpl21set_target_level_dbfsEi
_ZN6webrtc15GainControlImpl23set_analog_level_limitsEii
_ZN6webrtc15GainControlImpl23set_compression_gain_dbEi
_ZN6webrtc15GainControlImpl23set_stream_analog_levelEi
_ZN6webrtc15GainControlImpl6EnableEb
_ZN6webrtc15GainControlImpl8set_modeENS_11GainControl4ModeE
_ZN6webrtc15GainControlImplC1EPKNS_15AudioProcessingEPNS_22CriticalSectionWrapperE
_ZN6webrtc15GainControlImplC2EPKNS_15AudioProcessingEPNS_22CriticalSectionWrapperE
_ZN6webrtc15GainControlImplD0Ev
_ZN6webrtc15GainControlImplD1Ev
_ZN6webrtc15GainControlImplD2Ev
_ZN6webrtc15IFChannelBuffer4fbufEv
_ZN6webrtc15IFChannelBuffer4ibufEv
_ZN6webrtc15IFChannelBufferC1Eyiy
_ZN6webrtc15IFChannelBufferC2Eyiy
_ZN6webrtc15LappedTransform10BlockThunk12ProcessBlockEPKPKfyiiPKPf
_ZN6webrtc15LappedTransform10BlockThunkD0Ev
_ZN6webrtc15LappedTransform10BlockThunkD1Ev
_ZN6webrtc15LappedTransform12ProcessChunkEPKPKfPKPf
_ZN6webrtc15LappedTransformC1EiiyPKfyyPNS0_8CallbackE
_ZN6webrtc15LappedTransformC2EiiyPKfyyPNS0_8CallbackE
_ZN6webrtc15SparseFIRFilter6FilterEPKfyPf
_ZN6webrtc15SparseFIRFilterC1EPKfyyy
_ZN6webrtc15SparseFIRFilterC2EPKfyyy
_ZN6webrtc15SplittingFilter16TwoBandsAnalysisEPKNS_15IFChannelBufferEPS1_
_ZN6webrtc15SplittingFilter17TwoBandsSynthesisEPKNS_15IFChannelBufferEPS1_
_ZN6webrtc15SplittingFilter18ThreeBandsAnalysisEPKNS_15IFChannelBufferEPS1_
_ZN6webrtc15SplittingFilter19ThreeBandsSynthesisEPKNS_15IFChannelBufferEPS1_
_ZN6webrtc15SplittingFilter8AnalysisEPKNS_15IFChannelBufferEPS1_
_ZN6webrtc15SplittingFilter9SynthesisEPKNS_15IFChannelBufferEPS1_
_ZN6webrtc15SplittingFilterC1Eiyy
_ZN6webrtc15SplittingFilterC2Eiyy
_ZN6webrtc15TypingDetection13SetParametersEiiiiii
_ZN6webrtc15TypingDetection31TimeSinceLastDetectionInSecondsEv
_ZN6webrtc15TypingDetection7ProcessEbb
_ZN6webrtc15TypingDetectionC1Ev
_ZN6webrtc15TypingDetectionC2Ev
_ZN6webrtc15TypingDetectionD0Ev
_ZN6webrtc15TypingDetectionD1Ev
_ZN6webrtc15TypingDetectionD2Ev
_ZN6webrtc15WindowGenerator19KaiserBesselDerivedEfyPf
_ZN6webrtc15WindowGenerator7HanningEiPf
_ZN6webrtc15intelligibility11GainApplier5ApplyEPKSt7complexIfEPS3_
_ZN6webrtc15intelligibility11GainApplierC1Eyf
_ZN6webrtc15intelligibility11GainApplierC2Eyf
_ZN6webrtc15intelligibility12UpdateFactorEfff
_ZN6webrtc15intelligibility13VarianceArray10ApplyScaleEf
_ZN6webrtc15intelligibility13VarianceArray11BlockedStepEPKSt7complexIfEb
_ZN6webrtc15intelligibility13VarianceArray12InfiniteStepEPKSt7complexIfEb
_ZN6webrtc15intelligibility13VarianceArray12WindowedStepEPKSt7complexIfEb
_ZN6webrtc15intelligibility13VarianceArray23BlockBasedMovingAverageEPKSt7complexIfEb
_ZN6webrtc15intelligibility13VarianceArray5ClearEv
_ZN6webrtc15intelligibility13VarianceArray9DecayStepEPKSt7complexIfEb
_ZN6webrtc15intelligibility13VarianceArrayC1EyNS1_8StepTypeEyf
_ZN6webrtc15intelligibility13VarianceArrayC2EyNS1_8StepTypeEyf
_ZN6webrtc15intelligibility13VarianceArrayD1Ev
_ZN6webrtc15intelligibility15AddDitherIfZeroEf
_ZN6webrtc15intelligibility7NewMeanESt7complexIfES2_y
_ZN6webrtc15intelligibility9AddToMeanESt7complexIfEyPS2_
_ZN6webrtc15intelligibility9zerofudgeESt7complexIfE
_ZN6webrtc16AgcManagerDirect10InitializeEv
_ZN6webrtc16AgcManagerDirect10UpdateGainEv
_ZN6webrtc16AgcManagerDirect11SetMaxLevelEi
_ZN6webrtc16AgcManagerDirect15SetCaptureMutedEb
_ZN6webrtc16AgcManagerDirect16UpdateCompressorEv
_ZN6webrtc16AgcManagerDirect17AnalyzePreProcessEPsiy
_ZN6webrtc16AgcManagerDirect17voice_probabilityEv
_ZN6webrtc16AgcManagerDirect19CheckVolumeAndResetEv
_ZN6webrtc16AgcManagerDirect7ProcessEPKsyi
_ZN6webrtc16AgcManagerDirect8SetLevelEi
_ZN6webrtc16AgcManagerDirectC1EPNS_11GainControlEPNS_15VolumeCallbacksEi
_ZN6webrtc16AgcManagerDirectC1EPNS_3AgcEPNS_11GainControlEPNS_15VolumeCallbacksEi
_ZN6webrtc16AgcManagerDirectC2EPNS_11GainControlEPNS_15VolumeCallbacksEi
_ZN6webrtc16AgcManagerDirectC2EPNS_3AgcEPNS_11GainControlEPNS_15VolumeCallbacksEi
_ZN6webrtc16AgcManagerDirectD1Ev
_ZN6webrtc16AgcManagerDirectD2Ev
_ZN6webrtc16ArePerpendicularERKNS_14CartesianPointIfEES3_
_ZN6webrtc16DownmixConverter7ConvertEPKPKfyPKPfy
_ZN6webrtc16DownmixConverterD0Ev
_ZN6webrtc16DownmixConverterD1Ev
_ZN6webrtc16RealFourierOouraC1Ei
_ZN6webrtc16RealFourierOouraC2Ei
_ZN6webrtc16RealFourierOouraD0Ev
_ZN6webrtc16RealFourierOouraD1Ev
_ZN6webrtc17EchoControlMobile20echo_path_size_bytesEv
_ZN6webrtc17GetMinimumSpacingERKSt6vectorINS_14CartesianPointIfEESaIS2_EE
_ZN6webrtc17GetNormalIfPlanarERKSt6vectorINS_14CartesianPointIfEESaIS2_EE
_ZN6webrtc17PushSincResampler3RunEyPf
_ZN6webrtc17PushSincResampler8ResampleEPKfyPfy
_ZN6webrtc17PushSincResampler8ResampleEPKsyPsy
_ZN6webrtc17PushSincResamplerC1Eyy
_ZN6webrtc17PushSincResamplerC2Eyy
_ZN6webrtc17PushSincResamplerD0Ev
_ZN6webrtc17PushSincResamplerD1Ev
_ZN6webrtc17PushSincResamplerD2Ev
_ZN6webrtc17ResampleConverter7ConvertEPKPKfyPKPfy
_ZN6webrtc17ResampleConverterD0Ev
_ZN6webrtc17ResampleConverterD1Ev
_ZN6webrtc17STLDeleteElementsISt6vectorIPNS_13ComplexMatrixIfEESaIS4_EEEEvPT_
_ZN6webrtc17STLDeleteElementsISt6vectorIPNS_14AudioConverterESaIS3_EEEEvPT_
_ZN6webrtc17STLDeleteElementsISt6vectorIPNS_17PushSincResamplerESaIS3_EEEEvPT_
_ZN6webrtc17TransientDetector23ReferenceDetectionValueEPKfy
_ZN6webrtc17TransientDetector6DetectEPKfyS2_y
_ZN6webrtc17TransientDetectorC1Ei
_ZN6webrtc17TransientDetectorC2Ei
_ZN6webrtc17TransientDetectorD1Ev
_ZN6webrtc17TransientDetectorD2Ev
_ZN6webrtc17VadCircularBuffer11BufferLevelEv
_ZN6webrtc17VadCircularBuffer15RemoveTransientEid
_ZN6webrtc17VadCircularBuffer3SetEid
_ZN6webrtc17VadCircularBuffer4MeanEv
_ZN6webrtc17VadCircularBuffer5ResetEv
_ZN6webrtc17VadCircularBuffer6CreateEi
_ZN6webrtc17VadCircularBuffer6InsertEd
_ZN6webrtc17VadCircularBufferC1Ei
_ZN6webrtc17VadCircularBufferC2Ei
_ZN6webrtc17VadCircularBufferD1Ev
_ZN6webrtc17VadCircularBufferD2Ev
_ZN6webrtc18HighPassFilterImpl19ProcessCaptureAudioEPNS_11AudioBufferE
_ZN6webrtc18HighPassFilterImpl6EnableEb
_ZN6webrtc18HighPassFilterImplC1EPKNS_15AudioProcessingEPNS_22CriticalSectionWrapperE
_ZN6webrtc18HighPassFilterImplC2EPKNS_15AudioProcessingEPNS_22CriticalSectionWrapperE
_ZN6webrtc18HighPassFilterImplD0Ev
_ZN6webrtc18HighPassFilterImplD1Ev
_ZN6webrtc18HighPassFilterImplD2Ev
_ZN6webrtc18LevelEstimatorImpl13ProcessStreamEPNS_11AudioBufferE
_ZN6webrtc18LevelEstimatorImpl3RMSEv
_ZN6webrtc18LevelEstimatorImpl6EnableEb
_ZN6webrtc18LevelEstimatorImplC1EPKNS_15AudioProcessingEPNS_22CriticalSectionWrapperE
_ZN6webrtc18LevelEstimatorImplC2EPKNS_15AudioProcessingEPNS_22CriticalSectionWrapperE
_ZN6webrtc18LevelEstimatorImplD0Ev
_ZN6webrtc18LevelEstimatorImplD1Ev
_ZN6webrtc18LevelEstimatorImplD2Ev
_ZN6webrtc18VoiceDetectionImpl10InitializeEv
_ZN6webrtc18VoiceDetectionImpl14set_likelihoodENS_14VoiceDetection10LikelihoodE
_ZN6webrtc18VoiceDetectionImpl17set_frame_size_msEi
_ZN6webrtc18VoiceDetectionImpl19ProcessCaptureAudioEPNS_11AudioBufferE
_ZN6webrtc18VoiceDetectionImpl20set_stream_has_voiceEb
_ZN6webrtc18VoiceDetectionImpl6EnableEb
_ZN6webrtc18VoiceDetectionImplC1EPKNS_15AudioProcessingEPNS_22CriticalSectionWrapperE
_ZN6webrtc18VoiceDetectionImplC2EPKNS_15AudioProcessingEPNS_22CriticalSectionWrapperE
_ZN6webrtc18VoiceDetectionImplD0Ev
_ZN6webrtc18VoiceDetectionImplD1Ev
_ZN6webrtc18VoiceDetectionImplD2Ev
_ZN6webrtc19AudioProcessingImpl10InitializeERKNS_16ProcessingConfigE
_ZN6webrtc19AudioProcessingImpl10InitializeEiiiNS_15AudioProcessing13ChannelLayoutES2_S2_
_ZN6webrtc19AudioProcessingImpl10InitializeEv
_ZN6webrtc19AudioProcessingImpl13ProcessStreamEPKPKfRKNS_12StreamConfigES7_PKPf
_ZN6webrtc19AudioProcessingImpl13ProcessStreamEPKPKfyiNS_15AudioProcessing13ChannelLayoutEiS6_PKPf
_ZN6webrtc19AudioProcessingImpl13ProcessStreamEPNS_10AudioFrameE
_ZN6webrtc19AudioProcessingImpl15SetExtraOptionsERKNS_6ConfigE
_ZN6webrtc19AudioProcessingImpl16InitializeLockedERKNS_16ProcessingConfigE
_ZN6webrtc19AudioProcessingImpl16InitializeLockedEv
_ZN6webrtc19AudioProcessingImpl18StopDebugRecordingEv
_ZN6webrtc19AudioProcessingImpl19InitializeTransientEv
_ZN6webrtc19AudioProcessingImpl19ProcessStreamLockedEv
_ZN6webrtc19AudioProcessingImpl19StartDebugRecordingEP6_iobuf
_ZN6webrtc19AudioProcessingImpl19StartDebugRecordingEPKc
_ZN6webrtc19AudioProcessingImpl19set_delay_offset_msEi
_ZN6webrtc19AudioProcessingImpl19set_stream_delay_msEi
_ZN6webrtc19AudioProcessingImpl20AnalyzeReverseStreamEPKPKfRKNS_12StreamConfigES7_
_ZN6webrtc19AudioProcessingImpl20AnalyzeReverseStreamEPKPKfyiNS_15AudioProcessing13ChannelLayoutE
_ZN6webrtc19AudioProcessingImpl20AnalyzeReverseStreamEPNS_10AudioFrameE
_ZN6webrtc19AudioProcessingImpl20InitializeBeamformerEv
_ZN6webrtc19AudioProcessingImpl20ProcessReverseStreamEPKPKfRKNS_12StreamConfigES7_PKPf
_ZN6webrtc19AudioProcessingImpl20ProcessReverseStreamEPNS_10AudioFrameE
_ZN6webrtc19AudioProcessingImpl21MaybeInitializeLockedERKNS_16ProcessingConfigE
_ZN6webrtc19AudioProcessingImpl21MaybeUpdateHistogramsEv
_ZN6webrtc19AudioProcessingImpl22set_stream_key_pressedEb
_ZN6webrtc19AudioProcessingImpl24set_output_will_be_mutedEb
_ZN6webrtc19AudioProcessingImpl25InitializeExperimentalAgcEv
_ZN6webrtc19AudioProcessingImpl25InitializeIntelligibilityEv
_ZN6webrtc19AudioProcessingImpl25UpdateHistogramsOnCallEndEv
_ZN6webrtc19AudioProcessingImpl26ProcessReverseStreamLockedEv
_ZN6webrtc19AudioProcessingImpl34StartDebugRecordingForPlatformFileEPv
_ZN6webrtc19AudioProcessingImplC1ERKNS_6ConfigE
_ZN6webrtc19AudioProcessingImplC1ERKNS_6ConfigEPNS_10BeamformerIfEE
_ZN6webrtc19AudioProcessingImplC2ERKNS_6ConfigE
_ZN6webrtc19AudioProcessingImplC2ERKNS_6ConfigEPNS_10BeamformerIfEE
_ZN6webrtc19AudioProcessingImplD0Ev
_ZN6webrtc19AudioProcessingImplD1Ev
_ZN6webrtc19AudioProcessingImplD2Ev
_ZN6webrtc19NonlinearBeamformer10ApplyMasksEPKPKSt7complexIfEPKPS2_
_ZN6webrtc19NonlinearBeamformer10InitializeEii
_ZN6webrtc19NonlinearBeamformer12ProcessChunkERKNS_13ChannelBufferIfEEPS2_
_ZN6webrtc19NonlinearBeamformer12kNumFreqBinsE DATA
_ZN6webrtc19NonlinearBeamformer13MaskRangeMeanEyy
_ZN6webrtc19NonlinearBeamformer16InitInterfAnglesEv
_ZN6webrtc19NonlinearBeamformer16NormalizeCovMatsEv
_ZN6webrtc19NonlinearBeamformer17InitDelaySumMasksEv
_ZN6webrtc19NonlinearBeamformer17InitInterfCovMatsEv
_ZN6webrtc19NonlinearBeamformer17InitTargetCovMatsEv
_ZN6webrtc19NonlinearBeamformer17ProcessAudioBlockEPKPKSt7complexIfEiyiPKPS2_
_ZN6webrtc19NonlinearBeamformer17is_target_presentEv
_ZN6webrtc19NonlinearBeamformer18InitDiffuseCovMatsEv
_ZN6webrtc19NonlinearBeamformer21kHalfBeamWidthRadiansE DATA
_ZN6webrtc19NonlinearBeamformer22ApplyMaskTimeSmoothingEv
_ZN6webrtc19NonlinearBeamformer22EstimateTargetPresenceEv
_ZN6webrtc19NonlinearBeamformer23CalculatePostfilterMaskERKNS_13ComplexMatrixIfEEfff
_ZN6webrtc19NonlinearBeamformer27ApplyLowFrequencyCorrectionEv
_ZN6webrtc19NonlinearBeamformer27ApplyMaskFrequencySmoothingEv
_ZN6webrtc19NonlinearBeamformer28ApplyHighFrequencyCorrectionEv
_ZN6webrtc19NonlinearBeamformer32InitLowFrequencyCorrectionRangesEv
_ZN6webrtc19NonlinearBeamformer33InitHighFrequencyCorrectionRangesEv
_ZN6webrtc19NonlinearBeamformer5AimAtERKNS_14SphericalPointIfEE
_ZN6webrtc19NonlinearBeamformer8IsInBeamERKNS_14SphericalPointIfEE
_ZN6webrtc19NonlinearBeamformerC1ERKSt6vectorINS_14CartesianPointIfEESaIS3_EENS_14SphericalPointIfEE
_ZN6webrtc19NonlinearBeamformerC2ERKSt6vectorINS_14CartesianPointIfEESaIS3_EENS_14SphericalPointIfEE
_ZN6webrtc19NonlinearBeamformerD0Ev
_ZN6webrtc19NonlinearBeamformerD1Ev
_ZN6webrtc19ProcessingComponent10InitializeEv
_ZN6webrtc19ProcessingComponent15EnableComponentEb
_ZN6webrtc19ProcessingComponent15SetExtraOptionsERKNS_6ConfigE
_ZN6webrtc19ProcessingComponent7DestroyEv
_ZN6webrtc19ProcessingComponent9ConfigureEv
_ZN6webrtc19ProcessingComponentC1Ev
_ZN6webrtc19ProcessingComponentC2Ev
_ZN6webrtc19ProcessingComponentD0Ev
_ZN6webrtc19ProcessingComponentD1Ev
_ZN6webrtc19ProcessingComponentD2Ev
_ZN6webrtc19ThreeBandFilterBank10UpModulateEPKPKfyyPf
_ZN6webrtc19ThreeBandFilterBank12DownModulateEPKfyyPKPf
_ZN6webrtc19ThreeBandFilterBank8AnalysisEPKfyPKPf
_ZN6webrtc19ThreeBandFilterBank9SynthesisEPKPKfyPf
_ZN6webrtc19ThreeBandFilterBankC1Ey
_ZN6webrtc19ThreeBandFilterBankC2Ey
_ZN6webrtc19TransientSuppressor10InitializeEiii
_ZN6webrtc19TransientSuppressor13UpdateBuffersEPf
_ZN6webrtc19TransientSuppressor14UpdateKeypressEb
_ZN6webrtc19TransientSuppressor15HardRestorationEPf
_ZN6webrtc19TransientSuppressor15SoftRestorationEPf
_ZN6webrtc19TransientSuppressor17UpdateRestorationEf
_ZN6webrtc19TransientSuppressor8SuppressEPfS1_S1_
_ZN6webrtc19TransientSuppressor8SuppressEPfyiPKfyS3_yfb
_ZN6webrtc19TransientSuppressorC1Ev
_ZN6webrtc19TransientSuppressorC2Ev
_ZN6webrtc19TransientSuppressorD1Ev
_ZN6webrtc19TransientSuppressorD2Ev
_ZN6webrtc19initialize_srw_lockE DATA
_ZN6webrtc20CompositionConverter7ConvertEPKPKfyPKPfy
_ZN6webrtc20CompositionConverterD0Ev
_ZN6webrtc20CompositionConverterD1Ev
_ZN6webrtc20EchoCancellationImpl10GetMetricsEPNS_16EchoCancellation7MetricsE
_ZN6webrtc20EchoCancellationImpl10InitializeEv
_ZN6webrtc20EchoCancellationImpl14enable_metricsEb
_ZN6webrtc20EchoCancellationImpl15GetDelayMetricsEPiS1_
_ZN6webrtc20EchoCancellationImpl15GetDelayMetricsEPiS1_Pf
_ZN6webrtc20EchoCancellationImpl15SetExtraOptionsERKNS_6ConfigE
_ZN6webrtc20EchoCancellationImpl18ProcessRenderAudioEPKNS_11AudioBufferE
_ZN6webrtc20EchoCancellationImpl19ProcessCaptureAudioEPNS_11AudioBufferE
_ZN6webrtc20EchoCancellationImpl20enable_delay_loggingEb
_ZN6webrtc20EchoCancellationImpl21set_suppression_levelENS_16EchoCancellation16SuppressionLevelE
_ZN6webrtc20EchoCancellationImpl24set_stream_drift_samplesEi
_ZN6webrtc20EchoCancellationImpl25enable_drift_compensationEb
_ZN6webrtc20EchoCancellationImpl6EnableEb
_ZN6webrtc20EchoCancellationImplC1EPKNS_15AudioProcessingEPNS_22CriticalSectionWrapperE
_ZN6webrtc20EchoCancellationImplC2EPKNS_15AudioProcessingEPNS_22CriticalSectionWrapperE
_ZN6webrtc20EchoCancellationImplD0Ev
_ZN6webrtc20EchoCancellationImplD1Ev
_ZN6webrtc20EchoCancellationImplD2Ev
_ZN6webrtc20GainControlForNewAgc12GetMicVolumeEv
_ZN6webrtc20GainControlForNewAgc12SetMicVolumeEi
_ZN6webrtc20GainControlForNewAgc14enable_limiterEb
_ZN6webrtc20GainControlForNewAgc19stream_analog_levelEv
_ZN6webrtc20GainControlForNewAgc21set_target_level_dbfsEi
_ZN6webrtc20GainControlForNewAgc23set_analog_level_limitsEii
_ZN6webrtc20GainControlForNewAgc23set_compression_gain_dbEi
_ZN6webrtc20GainControlForNewAgc23set_stream_analog_levelEi
_ZN6webrtc20GainControlForNewAgc6EnableEb
_ZN6webrtc20GainControlForNewAgc8set_modeENS_11GainControl4ModeE
_ZN6webrtc20GainControlForNewAgcD0Ev
_ZN6webrtc20GainControlForNewAgcD1Ev
_ZN6webrtc20GetDirectionIfLinearERKSt6vectorINS_14CartesianPointIfEESaIS2_EE
_ZN6webrtc20NoiseSuppressionImpl19AnalyzeCaptureAudioEPNS_11AudioBufferE
_ZN6webrtc20NoiseSuppressionImpl19ProcessCaptureAudioEPNS_11AudioBufferE
_ZN6webrtc20NoiseSuppressionImpl6EnableEb
_ZN6webrtc20NoiseSuppressionImpl9set_levelENS_16NoiseSuppression5LevelE
_ZN6webrtc20NoiseSuppressionImplC1EPKNS_15AudioProcessingEPNS_22CriticalSectionWrapperE
_ZN6webrtc20NoiseSuppressionImplC2EPKNS_15AudioProcessingEPNS_22CriticalSectionWrapperE
_ZN6webrtc20NoiseSuppressionImplD0Ev
_ZN6webrtc20NoiseSuppressionImplD1Ev
_ZN6webrtc20NoiseSuppressionImplD2Ev
_ZN6webrtc21EchoControlMobileImpl10InitializeEv
_ZN6webrtc21EchoControlMobileImpl11SetEchoPathEPKvy
_ZN6webrtc21EchoControlMobileImpl16set_routing_modeENS_17EchoControlMobile11RoutingModeE
_ZN6webrtc21EchoControlMobileImpl18ProcessRenderAudioEPKNS_11AudioBufferE
_ZN6webrtc21EchoControlMobileImpl19ProcessCaptureAudioEPNS_11AudioBufferE
_ZN6webrtc21EchoControlMobileImpl20enable_comfort_noiseEb
_ZN6webrtc21EchoControlMobileImpl6EnableEb
_ZN6webrtc21EchoControlMobileImplC1EPKNS_15AudioProcessingEPNS_22CriticalSectionWrapperE
_ZN6webrtc21EchoControlMobileImplC2EPKNS_15AudioProcessingEPNS_22CriticalSectionWrapperE
_ZN6webrtc21EchoControlMobileImplD0Ev
_ZN6webrtc21EchoControlMobileImplD1Ev
_ZN6webrtc21EchoControlMobileImplD2Ev
_ZN6webrtc21VoiceActivityDetector12ProcessChunkEPKsyi
_ZN6webrtc21VoiceActivityDetectorC1Ev
_ZN6webrtc21VoiceActivityDetectorC2Ev
_ZN6webrtc22CriticalSectionWindows5EnterEv
_ZN6webrtc22CriticalSectionWindows5LeaveEv
_ZN6webrtc22CriticalSectionWindowsC1Ev
_ZN6webrtc22CriticalSectionWindowsC2Ev
_ZN6webrtc22CriticalSectionWindowsD0Ev
_ZN6webrtc22CriticalSectionWindowsD1Ev
_ZN6webrtc22CriticalSectionWindowsD2Ev
_ZN6webrtc22CriticalSectionWrapper21CreateCriticalSectionEv
_ZN6webrtc22GetArrayNormalIfExistsERKSt6vectorINS_14CartesianPointIfEESaIS2_EE
_ZN6webrtc22WriteFloatBufferToFileEPNS_11FileWrapperEyPKf
_ZN6webrtc22WriteInt16BufferToFileEPNS_11FileWrapperEyPKs
_ZN6webrtc23ConvertByteArrayToFloatEPKhPf
_ZN6webrtc23ConvertFloatToByteArrayEfPh
_ZN6webrtc23IntelligibilityEnhancer10DotProductEPKfS2_y
_ZN6webrtc23IntelligibilityEnhancer11GetBankSizeEiy
_ZN6webrtc23IntelligibilityEnhancer13CreateErbBankEv
_ZN6webrtc23IntelligibilityEnhancer13DispatchAudioENS0_11AudioSourceEPKSt7complexIfEPS3_
_ZN6webrtc23IntelligibilityEnhancer14FilterVarianceEPKfPf
_ZN6webrtc23IntelligibilityEnhancer14SolveForLambdaEfff
_ZN6webrtc23IntelligibilityEnhancer14UpdateErbGainsEv
_ZN6webrtc23IntelligibilityEnhancer17AnalyzeClearBlockEf
_ZN6webrtc23IntelligibilityEnhancer17ProcessClearBlockEPKSt7complexIfEPS2_
_ZN6webrtc23IntelligibilityEnhancer17ProcessNoiseBlockEPKSt7complexIfEPS2_
_ZN6webrtc23IntelligibilityEnhancer17TransformCallback17ProcessAudioBlockEPKPKSt7complexIfEiyiPKPS3_
_ZN6webrtc23IntelligibilityEnhancer17TransformCallbackC1EPS0_NS0_11AudioSourceE
_ZN6webrtc23IntelligibilityEnhancer17TransformCallbackC2EPS0_NS0_11AudioSourceE
_ZN6webrtc23IntelligibilityEnhancer17TransformCallbackD0Ev
_ZN6webrtc23IntelligibilityEnhancer17TransformCallbackD1Ev
_ZN6webrtc23IntelligibilityEnhancer18ProcessRenderAudioEPKPfii
_ZN6webrtc23IntelligibilityEnhancer19AnalyzeCaptureAudioEPKPfii
_ZN6webrtc23IntelligibilityEnhancer24SolveForGainsGivenLambdaEfyPf
_ZN6webrtc23IntelligibilityEnhancerC1ERKNS0_6ConfigE
_ZN6webrtc23IntelligibilityEnhancerC1Ev
_ZN6webrtc23IntelligibilityEnhancerC2ERKNS0_6ConfigE
_ZN6webrtc23IntelligibilityEnhancerC2Ev
_ZN6webrtc23PWakeConditionVariable_E DATA
_ZN6webrtc23ReadFloatBufferFromFileEPNS_11FileWrapperEyPf
_ZN6webrtc23ReadInt16BufferFromFileEPNS_11FileWrapperEyPs
_ZN6webrtc23WriteDoubleBufferToFileEPNS_11FileWrapperEyPKd
_ZN6webrtc23acquire_srw_lock_sharedE DATA
_ZN6webrtc23release_srw_lock_sharedE DATA
_ZN6webrtc24ConditionVariableWrapper23CreateConditionVariableEv
_ZN6webrtc24ConvertByteArrayToDoubleEPKhPd
_ZN6webrtc24ConvertDoubleToByteArrayEdPh
_ZN6webrtc24DownmixInterleavedToMonoIsEEvPKT_yiPS1_
_ZN6webrtc24ReadDoubleBufferFromFileEPNS_11FileWrapperEyPd
_ZN6webrtc25ConditionVariableEventWin4WakeEv
_ZN6webrtc25ConditionVariableEventWin7SleepCSERNS_22CriticalSectionWrapperE
_ZN6webrtc25ConditionVariableEventWin7SleepCSERNS_22CriticalSectionWrapperEm
_ZN6webrtc25ConditionVariableEventWin7WakeAllEv
_ZN6webrtc25ConditionVariableEventWinC1Ev
_ZN6webrtc25ConditionVariableEventWinC2Ev
_ZN6webrtc25ConditionVariableEventWinD0Ev
_ZN6webrtc25ConditionVariableEventWinD1Ev
_ZN6webrtc25ConditionVariableEventWinD2Ev
_ZN6webrtc25CovarianceMatrixGenerator19PhaseAlignmentMasksEyyifRKSt6vectorINS_14CartesianPointIfEESaIS3_EEfPNS_13ComplexMatrixIfEE
_ZN6webrtc25CovarianceMatrixGenerator22AngledCovarianceMatrixEffyyyiRKSt6vectorINS_14CartesianPointIfEESaIS3_EEPNS_13ComplexMatrixIfEE
_ZN6webrtc25CovarianceMatrixGenerator23UniformCovarianceMatrixEfRKSt6vectorINS_14CartesianPointIfEESaIS3_EEPNS_13ComplexMatrixIfEE
_ZN6webrtc26ConditionVariableNativeWin4InitEv
_ZN6webrtc26ConditionVariableNativeWin4WakeEv
_ZN6webrtc26ConditionVariableNativeWin6CreateEv
_ZN6webrtc26ConditionVariableNativeWin7SleepCSERNS_22CriticalSectionWrapperE
_ZN6webrtc26ConditionVariableNativeWin7SleepCSERNS_22CriticalSectionWrapperEm
_ZN6webrtc26ConditionVariableNativeWin7WakeAllEv
_ZN6webrtc26ConditionVariableNativeWinC1Ev
_ZN6webrtc26ConditionVariableNativeWinC2Ev
_ZN6webrtc26ConditionVariableNativeWinD0Ev
_ZN6webrtc26ConditionVariableNativeWinD1Ev
_ZN6webrtc26ConditionVariableNativeWinD2Ev
_ZN6webrtc26PSleepConditionVariableCS_E DATA
_ZN6webrtc26PWakeAllConditionVariable_E DATA
_ZN6webrtc26STLDeleteContainerPointersIN9__gnu_cxx17__normal_iteratorIPPNS_19ThreeBandFilterBankESt6vectorIS4_SaIS4_EEEEEEvT_SA_
_ZN6webrtc26acquire_srw_lock_exclusiveE DATA
_ZN6webrtc26release_srw_lock_exclusiveE DATA
_ZN6webrtc29PInitializeConditionVariable_E DATA
_ZN6webrtc30ReadInt16FromFileToFloatBufferEPNS_11FileWrapperEyPf
_ZN6webrtc31ReadInt16FromFileToDoubleBufferEPNS_11FileWrapperEyPd
_ZN6webrtc3Agc13GetRmsErrorDbEPi
_ZN6webrtc3Agc14AnalyzePreprocEPKsy
_ZN6webrtc3Agc21set_target_level_dbfsEi
_ZN6webrtc3Agc5ResetEv
_ZN6webrtc3Agc7ProcessEPKsyi
_ZN6webrtc3AgcC1Ev
_ZN6webrtc3AgcC2Ev
_ZN6webrtc3AgcD0Ev
_ZN6webrtc3AgcD1Ev
_ZN6webrtc3AgcD2Ev
_ZN6webrtc5Trace11CreateTraceEv
_ZN6webrtc5Trace11ReturnTraceEv
_ZN6webrtc5Trace12SetTraceFileEPKcb
_ZN6webrtc5Trace12level_filterEv
_ZN6webrtc5Trace13level_filter_E DATA
_ZN6webrtc5Trace16SetTraceCallbackEPNS_13TraceCallbackE
_ZN6webrtc5Trace16kTimestampLengthE DATA
_ZN6webrtc5Trace16set_level_filterEi
_ZN6webrtc5Trace18kBoilerplateLengthE DATA
_ZN6webrtc5Trace18kTimestampPositionE DATA
_ZN6webrtc5Trace3AddENS_10TraceLevelENS_11TraceModuleEiPKcz
_ZN6webrtc5Trace9TraceFileEPc
_ZN6webrtc6Config10BaseOptionD0Ev
_ZN6webrtc6MatrixISt7complexIfEED0Ev
_ZN6webrtc6MatrixISt7complexIfEED1Ev
_ZN6webrtc6MatrixISt7complexIfEED2Ev
_ZN6webrtc7Blocker12ProcessChunkEPKPKfyiiPKPf
_ZN6webrtc7BlockerC1EyyiiPKfyPNS_15BlockerCallbackE
_ZN6webrtc7BlockerC2EyyiiPKfyPNS_15BlockerCallbackE
_ZN6webrtc7BlockerD1Ev
_ZN6webrtc7WPDNode6UpdateEPKfy
_ZN6webrtc7WPDNode8set_dataEPKfy
_ZN6webrtc7WPDNodeC1EyPKfy
_ZN6webrtc7WPDNodeC2EyPKfy
_ZN6webrtc7WPDNodeD1Ev
_ZN6webrtc7WPDNodeD2Ev
_ZN6webrtc7WPDTree6NodeAtEii
_ZN6webrtc7WPDTree6UpdateEPKfy
_ZN6webrtc7WPDTreeC1EyPKfS2_yi
_ZN6webrtc7WPDTreeC2EyPKfS2_yi
_ZN6webrtc7WPDTreeD1Ev
_ZN6webrtc7WPDTreeD2Ev
_ZN6webrtc7metrics12HistogramAddEPNS0_9HistogramERKNSt7__cxx1112basic_stringIcSt11char_traitsIcESaIcEEEi
_ZN6webrtc7metrics25HistogramFactoryGetCountsERKNSt7__cxx1112basic_stringIcSt11char_traitsIcESaIcEEEiii
_ZN6webrtc7metrics30HistogramFactoryGetEnumerationERKNSt7__cxx1112basic_stringIcSt11char_traitsIcESaIcEEEi
_ZN6webrtc8RMSLevel12ProcessMutedEy
_ZN6webrtc8RMSLevel3RMSEv
_ZN6webrtc8RMSLevel5ResetEv
_ZN6webrtc8RMSLevel7ProcessEPKsy
_ZN6webrtc8RMSLevelC1Ev
_ZN6webrtc8RMSLevelC2Ev
_ZN6webrtc8RMSLevelD1Ev
_ZN6webrtc8RMSLevelD2Ev
_ZN6webrtc9FIRFilter6CreateEPKfyy
_ZN6webrtc9Histogram10UpdateHistEii
_ZN6webrtc9Histogram11GetBinIndexEd
_ZN6webrtc9Histogram15RemoveTransientEv
_ZN6webrtc9Histogram26InsertNewestEntryAndUpdateEii
_ZN6webrtc9Histogram26RemoveOldestEntryAndUpdateEv
_ZN6webrtc9Histogram5ResetEv
_ZN6webrtc9Histogram6CreateEi
_ZN6webrtc9Histogram6CreateEv
_ZN6webrtc9Histogram6UpdateEdd
_ZN6webrtc9HistogramC1Ei
_ZN6webrtc9HistogramC1Ev
_ZN6webrtc9HistogramC2Ei
_ZN6webrtc9HistogramC2Ev
_ZN6webrtc9HistogramD1Ev
_ZN6webrtc9HistogramD2Ev
_ZN6webrtc9RWLockWin10LoadModuleEv
_ZN6webrtc9RWLockWin17AcquireLockSharedEv
_ZN6webrtc9RWLockWin17ReleaseLockSharedEv
_ZN6webrtc9RWLockWin20AcquireLockExclusiveEv
_ZN6webrtc9RWLockWin20ReleaseLockExclusiveEv
_ZN6webrtc9RWLockWin6CreateEv
_ZN6webrtc9RWLockWinC1Ev
_ZN6webrtc9RWLockWinC2Ev
_ZN6webrtc9RWLockWinD0Ev
_ZN6webrtc9RWLockWinD1Ev
_ZN6webrtc9Resampler13ResetIfNeededEiii
_ZN6webrtc9Resampler4PushEPKsyPsyRy
_ZN6webrtc9Resampler5ResetEiii
_ZN6webrtc9ResamplerC1Eiii
_ZN6webrtc9ResamplerC1Ev
_ZN6webrtc9ResamplerC2Eiii
_ZN6webrtc9ResamplerC2Ev
_ZN6webrtc9ResamplerD1Ev
_ZN6webrtc9ResamplerD2Ev
_ZN6webrtc9TraceImpl11WriteToFileEPKct
_ZN6webrtc9TraceImpl13TraceFileImplEPc
_ZN6webrtc9TraceImpl14CreateInstanceEv
_ZN6webrtc9TraceImpl14StaticInstanceENS_14CountOperationENS_10TraceLevelE
_ZN6webrtc9TraceImpl16AddMessageToListEPKctNS_10TraceLevelE
_ZN6webrtc9TraceImpl16SetTraceFileImplEPKcb
_ZN6webrtc9TraceImpl20SetTraceCallbackImplEPNS_13TraceCallbackE
_ZN6webrtc9TraceImpl7AddImplENS_10TraceLevelENS_11TraceModuleEiPKc
_ZN6webrtc9TraceImpl8GetTraceENS_10TraceLevelE
_ZN6webrtc9TraceImplC1Ev
_ZN6webrtc9TraceImplC2Ev
_ZN6webrtc9TraceImplD0Ev
_ZN6webrtc9TraceImplD1Ev
_ZN6webrtc9TraceImplD2Ev
_ZNK3rtc12TryCritScope6lockedEv
_ZNK3rtc15CriticalSection20CurrentThreadIsOwnerEv
_ZNK3rtc15CriticalSection8IsLockedEv
_ZNK6webrtc11AudioBuffer10num_framesEv
_ZNK6webrtc11AudioBuffer10split_dataEv
_ZNK6webrtc11AudioBuffer12num_channelsEv
_ZNK6webrtc11AudioBuffer12split_data_fEv
_ZNK6webrtc11AudioBuffer13keyboard_dataEv
_ZNK6webrtc11AudioBuffer14channels_constEv
_ZNK6webrtc11AudioBuffer16channels_const_fEv
_ZNK6webrtc11AudioBuffer17split_bands_constEi
_ZNK6webrtc11AudioBuffer18low_pass_referenceEi
_ZNK6webrtc11AudioBuffer19num_frames_per_bandEv
_ZNK6webrtc11AudioBuffer19num_keyboard_framesEv
_ZNK6webrtc11AudioBuffer19split_bands_const_fEi
_ZNK6webrtc11AudioBuffer20split_channels_constENS_4BandE
_ZNK6webrtc11AudioBuffer22split_channels_const_fENS_4BandE
_ZNK6webrtc11AudioBuffer4dataEv
_ZNK6webrtc11AudioBuffer6data_fEv
_ZNK6webrtc11AudioBuffer8activityEv
_ZNK6webrtc11AudioBuffer9num_bandsEv
_ZNK6webrtc12TraceWindows15AddDateTimeInfoEPc
_ZNK6webrtc12TraceWindows7AddTimeEPcNS_10TraceLevelE
_ZNK6webrtc13SincResampler9ChunkSizeEv
_ZNK6webrtc14AudioConverter10CheckSizesEyy
_ZNK6webrtc15AudioRingBuffer19ReadFramesAvailableEv
_ZNK6webrtc15AudioRingBuffer20WriteFramesAvailableEv
_ZNK6webrtc15FileWrapperImpl4OpenEv
_ZNK6webrtc15FileWrapperImpl8FileNameEPcy
_ZNK6webrtc15GainControlImpl10is_enabledEv
_ZNK6webrtc15GainControlImpl12CreateHandleEv
_ZNK6webrtc15GainControlImpl13DestroyHandleEPv
_ZNK6webrtc15GainControlImpl14GetHandleErrorEPv
_ZNK6webrtc15GainControlImpl15ConfigureHandleEPv
_ZNK6webrtc15GainControlImpl16InitializeHandleEPv
_ZNK6webrtc15GainControlImpl17target_level_dbfsEv
_ZNK6webrtc15GainControlImpl18is_limiter_enabledEv
_ZNK6webrtc15GainControlImpl19compression_gain_dbEv
_ZNK6webrtc15GainControlImpl19stream_is_saturatedEv
_ZNK6webrtc15GainControlImpl20analog_level_maximumEv
_ZNK6webrtc15GainControlImpl20analog_level_minimumEv
_ZNK6webrtc15GainControlImpl20num_handles_requiredEv
_ZNK6webrtc15GainControlImpl4modeEv
_ZNK6webrtc15IFChannelBuffer10fbuf_constEv
_ZNK6webrtc15IFChannelBuffer10ibuf_constEv
_ZNK6webrtc15IFChannelBuffer8RefreshFEv
_ZNK6webrtc15IFChannelBuffer8RefreshIEv
_ZNK6webrtc16RealFourierOoura5orderEv
_ZNK6webrtc16RealFourierOoura7ForwardEPKfPSt7complexIfE
_ZNK6webrtc16RealFourierOoura7InverseEPKSt7complexIfEPf
_ZNK6webrtc17VadCircularBuffer20ConvertToLinearIndexEPi
_ZNK6webrtc17VadCircularBuffer3GetEiPd
_ZNK6webrtc17VadCircularBuffer6OldestEv
_ZNK6webrtc18HighPassFilterImpl10is_enabledEv
_ZNK6webrtc18HighPassFilterImpl12CreateHandleEv
_ZNK6webrtc18HighPassFilterImpl13DestroyHandleEPv
_ZNK6webrtc18HighPassFilterImpl14GetHandleErrorEPv
_ZNK6webrtc18HighPassFilterImpl15ConfigureHandleEPv
_ZNK6webrtc18HighPassFilterImpl16InitializeHandleEPv
_ZNK6webrtc18HighPassFilterImpl20num_handles_requiredEv
_ZNK6webrtc18LevelEstimatorImpl10is_enabledEv
_ZNK6webrtc18LevelEstimatorImpl12CreateHandleEv
_ZNK6webrtc18LevelEstimatorImpl13DestroyHandleEPv
_ZNK6webrtc18LevelEstimatorImpl14GetHandleErrorEPv
_ZNK6webrtc18LevelEstimatorImpl15ConfigureHandleEPv
_ZNK6webrtc18LevelEstimatorImpl16InitializeHandleEPv
_ZNK6webrtc18LevelEstimatorImpl20num_handles_requiredEv
_ZNK6webrtc18VoiceDetectionImpl10is_enabledEv
_ZNK6webrtc18VoiceDetectionImpl10likelihoodEv
_ZNK6webrtc18VoiceDetectionImpl12CreateHandleEv
_ZNK6webrtc18VoiceDetectionImpl13DestroyHandleEPv
_ZNK6webrtc18VoiceDetectionImpl13frame_size_msEv
_ZNK6webrtc18VoiceDetectionImpl14GetHandleErrorEPv
_ZNK6webrtc18VoiceDetectionImpl15ConfigureHandleEPv
_ZNK6webrtc18VoiceDetectionImpl16InitializeHandleEPv
_ZNK6webrtc18VoiceDetectionImpl16stream_has_voiceEv
_ZNK6webrtc18VoiceDetectionImpl20num_handles_requiredEv
_ZNK6webrtc19AudioProcessingImpl12gain_controlEv
_ZNK6webrtc19AudioProcessingImpl15analysis_neededEb
_ZNK6webrtc19AudioProcessingImpl15delay_offset_msEv
_ZNK6webrtc19AudioProcessingImpl15level_estimatorEv
_ZNK6webrtc19AudioProcessingImpl15stream_delay_msEv
_ZNK6webrtc19AudioProcessingImpl15voice_detectionEv
_ZNK6webrtc19AudioProcessingImpl16high_pass_filterEv
_ZNK6webrtc19AudioProcessingImpl16is_rev_processedEv
_ZNK6webrtc19AudioProcessingImpl16synthesis_neededEb
_ZNK6webrtc19AudioProcessingImpl17echo_cancellationEv
_ZNK6webrtc19AudioProcessingImpl17is_data_processedEv
_ZNK6webrtc19AudioProcessingImpl17noise_suppressionEv
_ZNK6webrtc19AudioProcessingImpl18num_input_channelsEv
_ZNK6webrtc19AudioProcessingImpl18output_copy_neededEb
_ZNK6webrtc19AudioProcessingImpl19echo_control_mobileEv
_ZNK6webrtc19AudioProcessingImpl19num_output_channelsEv
_ZNK6webrtc19AudioProcessingImpl19proc_sample_rate_hzEv
_ZNK6webrtc19AudioProcessingImpl20num_reverse_channelsEv
_ZNK6webrtc19AudioProcessingImpl20was_stream_delay_setEv
_ZNK6webrtc19AudioProcessingImpl21rev_conversion_neededEv
_ZNK6webrtc19AudioProcessingImpl25proc_split_sample_rate_hzEv
_ZNK6webrtc19ProcessingComponent11num_handlesEv
_ZNK6webrtc19ProcessingComponent20is_component_enabledEv
_ZNK6webrtc19ProcessingComponent6handleEi
_ZNK6webrtc20EchoCancellationImpl10is_enabledEv
_ZNK6webrtc20EchoCancellationImpl12CreateHandleEv
_ZNK6webrtc20EchoCancellationImpl13DestroyHandleEPv
_ZNK6webrtc20EchoCancellationImpl14GetHandleErrorEPv
_ZNK6webrtc20EchoCancellationImpl15ConfigureHandleEPv
_ZNK6webrtc20EchoCancellationImpl15stream_has_echoEv
_ZNK6webrtc20EchoCancellationImpl16InitializeHandleEPv
_ZNK6webrtc20EchoCancellationImpl17suppression_levelEv
_ZNK6webrtc20EchoCancellationImpl19are_metrics_enabledEv
_ZNK6webrtc20EchoCancellationImpl20num_handles_requiredEv
_ZNK6webrtc20EchoCancellationImpl20stream_drift_samplesEv
_ZNK6webrtc20EchoCancellationImpl24is_delay_logging_enabledEv
_ZNK6webrtc20EchoCancellationImpl25is_delay_agnostic_enabledEv
_ZNK6webrtc20EchoCancellationImpl26is_extended_filter_enabledEv
_ZNK6webrtc20EchoCancellationImpl29is_drift_compensation_enabledEv
_ZNK6webrtc20EchoCancellationImpl8aec_coreEv
_ZNK6webrtc20GainControlForNewAgc10is_enabledEv
_ZNK6webrtc20GainControlForNewAgc17target_level_dbfsEv
_ZNK6webrtc20GainControlForNewAgc18is_limiter_enabledEv
_ZNK6webrtc20GainControlForNewAgc19compression_gain_dbEv
_ZNK6webrtc20GainControlForNewAgc19stream_is_saturatedEv
_ZNK6webrtc20GainControlForNewAgc20analog_level_maximumEv
_ZNK6webrtc20GainControlForNewAgc20analog_level_minimumEv
_ZNK6webrtc20GainControlForNewAgc4modeEv
_ZNK6webrtc20NoiseSuppressionImpl10is_enabledEv
_ZNK6webrtc20NoiseSuppressionImpl12CreateHandleEv
_ZNK6webrtc20NoiseSuppressionImpl13DestroyHandleEPv
_ZNK6webrtc20NoiseSuppressionImpl14GetHandleErrorEPv
_ZNK6webrtc20NoiseSuppressionImpl15ConfigureHandleEPv
_ZNK6webrtc20NoiseSuppressionImpl16InitializeHandleEPv
_ZNK6webrtc20NoiseSuppressionImpl18speech_probabilityEv
_ZNK6webrtc20NoiseSuppressionImpl20num_handles_requiredEv
_ZNK6webrtc20NoiseSuppressionImpl5levelEv
_ZNK6webrtc21EchoControlMobileImpl10is_enabledEv
_ZNK6webrtc21EchoControlMobileImpl11GetEchoPathEPvy
_ZNK6webrtc21EchoControlMobileImpl12CreateHandleEv
_ZNK6webrtc21EchoControlMobileImpl12routing_modeEv
_ZNK6webrtc21EchoControlMobileImpl13DestroyHandleEPv
_ZNK6webrtc21EchoControlMobileImpl14GetHandleErrorEPv
_ZNK6webrtc21EchoControlMobileImpl15ConfigureHandleEPv
_ZNK6webrtc21EchoControlMobileImpl16InitializeHandleEPv
_ZNK6webrtc21EchoControlMobileImpl20num_handles_requiredEv
_ZNK6webrtc21EchoControlMobileImpl24is_comfort_noise_enabledEv
_ZNK6webrtc23IntelligibilityEnhancer6activeEv
_ZNK6webrtc3Agc17target_level_dbfsEv
_ZNK6webrtc3Agc17voice_probabilityEv
_ZNK6webrtc6Config3GetINS_11BeamformingEEERKT_v
_ZNK6webrtc6Config3GetINS_13DelayAgnosticEEERKT_v
_ZNK6webrtc6Config3GetINS_14ExperimentalNsEEERKT_v
_ZNK6webrtc6Config3GetINS_14ExtendedFilterEEERKT_v
_ZNK6webrtc6Config3GetINS_15ExperimentalAgcEEERKT_v
_ZNK6webrtc6Config3GetINS_15IntelligibilityEEERKT_v
_ZNK6webrtc9Histogram10CurrentRmsEv
_ZNK6webrtc9Histogram12AudioContentEv
_ZNK6webrtc9TraceImpl10AddMessageEPcPKct
_ZNK6webrtc9TraceImpl10TraceCheckENS_10TraceLevelE
_ZNK6webrtc9TraceImpl11AddThreadIdEPc
_ZNK6webrtc9TraceImpl14AddModuleAndIdEPcNS_11TraceModuleEi
_ZNK6webrtc9TraceImpl14CreateFileNameEPKcPcj
_ZNK6webrtc9TraceImpl14UpdateFileNameEPKcPcj
_ZNK6webrtc9TraceImpl8AddLevelEPcNS_10TraceLevelE
_ZNKSt5ctypeIcE8do_widenEc
_ZNKSt8_Rb_treeIPvSt4pairIKS0_PN6webrtc6Config10BaseOptionEESt10_Select1stIS7_ESt4lessIS0_ESaIS7_EE4findERS2_
_ZNSt11_Deque_baseIfSaIfEED2Ev
_ZNSt5dequeIfSaIfEE17_M_reallocate_mapEyb
_ZNSt6vectorIN6webrtc14TwoBandsStatesESaIS1_EE17_M_default_appendEy
_ZNSt6vectorIP10RingBufferSaIS1_EE17_M_realloc_insertIJS1_EEEvN9__gnu_cxx17__normal_iteratorIPS1_S3_EEDpOT_
_ZNSt6vectorIPN6webrtc13ChannelBufferIfEESaIS3_EE17_M_realloc_insertIJRKS3_EEEvN9__gnu_cxx17__normal_iteratorIPS3_S5_EEDpOT_
_ZNSt6vectorIPN6webrtc13ComplexMatrixIfEESaIS3_EE17_M_realloc_insertIJRKS3_EEEvN9__gnu_cxx17__normal_iteratorIPS3_S5_EEDpOT_
_ZNSt6vectorIPN6webrtc14AudioConverterESaIS2_EE17_M_realloc_insertIJRKS2_EEEvN9__gnu_cxx17__normal_iteratorIPS2_S4_EEDpOT_
_ZNSt6vectorIPN6webrtc15SparseFIRFilterESaIS2_EE17_M_realloc_insertIJRKS2_EEEvN9__gnu_cxx17__normal_iteratorIPS2_S4_EEDpOT_
_ZNSt6vectorIPN6webrtc17PushSincResamplerESaIS2_EE17_M_realloc_insertIJRKS2_EEEvN9__gnu_cxx17__normal_iteratorIPS2_S4_EEDpOT_
_ZNSt6vectorIPN6webrtc19ThreeBandFilterBankESaIS2_EE17_M_realloc_insertIJRKS2_EEEvN9__gnu_cxx17__normal_iteratorIPS2_S4_EEDpOT_
_ZNSt6vectorIPSt7complexIfESaIS2_EE17_M_default_appendEy
_ZNSt6vectorIPvSaIS0_EE14_M_fill_insertEN9__gnu_cxx17__normal_iteratorIPS0_S2_EEyRKS0_
_ZNSt6vectorIS_IfSaIfEESaIS1_EE17_M_default_appendEy
_ZNSt6vectorISt7complexIfESaIS1_EE17_M_default_appendEy
_ZNSt6vectorIdSaIdEE17_M_default_appendEy
_ZNSt6vectorIfSaIfEE12emplace_backIJfEEEvDpOT_
_ZNSt6vectorIfSaIfEE17_M_default_appendEy
_ZNSt6vectorIfSaIfEE17_M_realloc_insertIJRKfEEEvN9__gnu_cxx17__normal_iteratorIPfS1_EEDpOT_
_ZNSt6vectorIfSaIfEE17_M_realloc_insertIJfEEEvN9__gnu_cxx17__normal_iteratorIPfS1_EEDpOT_
_ZNSt6vectorIiSaIiEE14_M_fill_assignEyRKi
_ZNSt7__cxx1115basic_stringbufIcSt11char_traitsIcESaIcEED1Ev
_ZNSt8_Rb_treeIPvSt4pairIKS0_PN6webrtc6Config10BaseOptionEESt10_Select1stIS7_ESt4lessIS0_ESaIS7_EE8_M_eraseEPSt13_Rb_tree_nodeIS7_E
_ZSt13__adjust_heapIPfxfN9__gnu_cxx5__ops15_Iter_less_iterEEvT_T0_S5_T1_T2_
_ZSt14__complex_sqrtIfESt7complexIT_ERKS2_
_ZTIN6webrtc10BeamformerIfEE DATA
_ZTIN6webrtc10FIRFilterCE DATA
_ZTIN6webrtc11AudioBufferE DATA
_ZTIN6webrtc11FileWrapperE DATA
_ZTIN6webrtc11GainControlE DATA
_ZTIN6webrtc11RealFourierE DATA
_ZTIN6webrtc12TraceWindowsE DATA
_ZTIN6webrtc13ComplexMatrixIfEE DATA
_ZTIN6webrtc13CopyConverterE DATA
_ZTIN6webrtc13FIRFilterSSE2E DATA
_ZTIN6webrtc13RWLockGenericE DATA
_ZTIN6webrtc13RWLockWrapperE DATA
_ZTIN6webrtc13SincResamplerE DATA
_ZTIN6webrtc13ThreadWindowsE DATA
_ZTIN6webrtc13ThreadWrapperE DATA
_ZTIN6webrtc14AudioConverterE DATA
_ZTIN6webrtc14HighPassFilterE DATA
_ZTIN6webrtc14LevelEstimatorE DATA
_ZTIN6webrtc14UpmixConverterE DATA
_ZTIN6webrtc14VoiceDetectionE DATA
_ZTIN6webrtc15AudioProcessingE DATA
_ZTIN6webrtc15BlockerCallbackE DATA
_ZTIN6webrtc15FileWrapperImplE DATA
_ZTIN6webrtc15GainControlImplE DATA
_ZTIN6webrtc15LappedTransform10BlockThunkE DATA
_ZTIN6webrtc15LappedTransform8CallbackE DATA
_ZTIN6webrtc15TypingDetectionE DATA
_ZTIN6webrtc15VolumeCallbacksE DATA
_ZTIN6webrtc16DownmixConverterE DATA
_ZTIN6webrtc16EchoCancellationE DATA
_ZTIN6webrtc16NoiseSuppressionE DATA
_ZTIN6webrtc16RealFourierOouraE DATA
_ZTIN6webrtc17EchoControlMobileE DATA
_ZTIN6webrtc17PushSincResamplerE DATA
_ZTIN6webrtc17ResampleConverterE DATA
_ZTIN6webrtc18HighPassFilterImplE DATA
_ZTIN6webrtc18LevelEstimatorImplE DATA
_ZTIN6webrtc18VoiceDetectionImplE DATA
_ZTIN6webrtc19AudioProcessingImplE DATA
_ZTIN6webrtc19NonlinearBeamformerE DATA
_ZTIN6webrtc19ProcessingComponentE DATA
_ZTIN6webrtc20CompositionConverterE DATA
_ZTIN6webrtc20EchoCancellationImplE DATA
_ZTIN6webrtc20GainControlForNewAgcE DATA
_ZTIN6webrtc20NoiseSuppressionImplE DATA
_ZTIN6webrtc21EchoControlMobileImplE DATA
_ZTIN6webrtc21SincResamplerCallbackE DATA
_ZTIN6webrtc22CriticalSectionWindowsE DATA
_ZTIN6webrtc22CriticalSectionWrapperE DATA
_ZTIN6webrtc23IntelligibilityEnhancer17TransformCallbackE DATA
_ZTIN6webrtc24ConditionVariableWrapperE DATA
_ZTIN6webrtc25ConditionVariableEventWinE DATA
_ZTIN6webrtc26ConditionVariableNativeWinE DATA
_ZTIN6webrtc3AgcE DATA
_ZTIN6webrtc5TraceE DATA
_ZTIN6webrtc6MatrixISt7complexIfEEE DATA
_ZTIN6webrtc8InStreamE DATA
_ZTIN6webrtc9FIRFilterE DATA
_ZTIN6webrtc9OutStreamE DATA
_ZTIN6webrtc9RWLockWinE DATA
_ZTIN6webrtc9TraceImplE DATA
_ZTSN6webrtc10BeamformerIfEE DATA
_ZTSN6webrtc10FIRFilterCE DATA
_ZTSN6webrtc11AudioBufferE DATA
_ZTSN6webrtc11FileWrapperE DATA
_ZTSN6webrtc11GainControlE DATA
_ZTSN6webrtc11RealFourierE DATA
_ZTSN6webrtc12TraceWindowsE DATA
_ZTSN6webrtc13ComplexMatrixIfEE DATA
_ZTSN6webrtc13CopyConverterE DATA
_ZTSN6webrtc13FIRFilterSSE2E DATA
_ZTSN6webrtc13RWLockGenericE DATA
_ZTSN6webrtc13RWLockWrapperE DATA
_ZTSN6webrtc13SincResamplerE DATA
_ZTSN6webrtc13ThreadWindowsE DATA
_ZTSN6webrtc13ThreadWrapperE DATA
_ZTSN6webrtc14AudioConverterE DATA
_ZTSN6webrtc14HighPassFilterE DATA
_ZTSN6webrtc14LevelEstimatorE DATA
_ZTSN6webrtc14UpmixConverterE DATA
_ZTSN6webrtc14VoiceDetectionE DATA
_ZTSN6webrtc15AudioProcessingE DATA
_ZTSN6webrtc15BlockerCallbackE DATA
_ZTSN6webrtc15FileWrapperImplE DATA
_ZTSN6webrtc15GainControlImplE DATA
_ZTSN6webrtc15LappedTransform10BlockThunkE DATA
_ZTSN6webrtc15LappedTransform8CallbackE DATA
_ZTSN6webrtc15TypingDetectionE DATA
_ZTSN6webrtc15VolumeCallbacksE DATA
_ZTSN6webrtc16DownmixConverterE DATA
_ZTSN6webrtc16EchoCancellationE DATA
_ZTSN6webrtc16NoiseSuppressionE DATA
_ZTSN6webrtc16RealFourierOouraE DATA
_ZTSN6webrtc17EchoControlMobileE DATA
_ZTSN6webrtc17PushSincResamplerE DATA
_ZTSN6webrtc17ResampleConverterE DATA
_ZTSN6webrtc18HighPassFilterImplE DATA
_ZTSN6webrtc18LevelEstimatorImplE DATA
_ZTSN6webrtc18VoiceDetectionImplE DATA
_ZTSN6webrtc19AudioProcessingImplE DATA
_ZTSN6webrtc19NonlinearBeamformerE DATA
_ZTSN6webrtc19ProcessingComponentE DATA
_ZTSN6webrtc20CompositionConverterE DATA
_ZTSN6webrtc20EchoCancellationImplE DATA
_ZTSN6webrtc20GainControlForNewAgcE DATA
_ZTSN6webrtc20NoiseSuppressionImplE DATA
_ZTSN6webrtc21EchoControlMobileImplE DATA
_ZTSN6webrtc21SincResamplerCallbackE DATA
_ZTSN6webrtc22CriticalSectionWindowsE DATA
_ZTSN6webrtc22CriticalSectionWrapperE DATA
_ZTSN6webrtc23IntelligibilityEnhancer17TransformCallbackE DATA
_ZTSN6webrtc24ConditionVariableWrapperE DATA
_ZTSN6webrtc25ConditionVariableEventWinE DATA
_ZTSN6webrtc26ConditionVariableNativeWinE DATA
_ZTSN6webrtc3AgcE DATA
_ZTSN6webrtc5TraceE DATA
_ZTSN6webrtc6MatrixISt7complexIfEEE DATA
_ZTSN6webrtc8InStreamE DATA
_ZTSN6webrtc9FIRFilterE DATA
_ZTSN6webrtc9OutStreamE DATA
_ZTSN6webrtc9RWLockWinE DATA
_ZTSN6webrtc9TraceImplE DATA
_ZTVN6webrtc10FIRFilterCE DATA
_ZTVN6webrtc11AudioBufferE DATA
_ZTVN6webrtc11FileWrapperE DATA
_ZTVN6webrtc11GainControlE DATA
_ZTVN6webrtc12TraceWindowsE DATA
_ZTVN6webrtc13ComplexMatrixIfEE DATA
_ZTVN6webrtc13CopyConverterE DATA
_ZTVN6webrtc13FIRFilterSSE2E DATA
_ZTVN6webrtc13RWLockGenericE DATA
_ZTVN6webrtc13SincResamplerE DATA
_ZTVN6webrtc13ThreadWindowsE DATA
_ZTVN6webrtc14AudioConverterE DATA
_ZTVN6webrtc14HighPassFilterE DATA
_ZTVN6webrtc14LevelEstimatorE DATA
_ZTVN6webrtc14UpmixConverterE DATA
_ZTVN6webrtc14VoiceDetectionE DATA
_ZTVN6webrtc15FileWrapperImplE DATA
_ZTVN6webrtc15GainControlImplE DATA
_ZTVN6webrtc15LappedTransform10BlockThunkE DATA
_ZTVN6webrtc15TypingDetectionE DATA
_ZTVN6webrtc16DownmixConverterE DATA
_ZTVN6webrtc16EchoCancellationE DATA
_ZTVN6webrtc16NoiseSuppressionE DATA
_ZTVN6webrtc16RealFourierOouraE DATA
_ZTVN6webrtc17EchoControlMobileE DATA
_ZTVN6webrtc17PushSincResamplerE DATA
_ZTVN6webrtc17ResampleConverterE DATA
_ZTVN6webrtc18HighPassFilterImplE DATA
_ZTVN6webrtc18LevelEstimatorImplE DATA
_ZTVN6webrtc18VoiceDetectionImplE DATA
_ZTVN6webrtc19AudioProcessingImplE DATA
_ZTVN6webrtc19NonlinearBeamformerE DATA
_ZTVN6webrtc19ProcessingComponentE DATA
_ZTVN6webrtc20CompositionConverterE DATA
_ZTVN6webrtc20EchoCancellationImplE DATA
_ZTVN6webrtc20GainControlForNewAgcE DATA
_ZTVN6webrtc20NoiseSuppressionImplE DATA
_ZTVN6webrtc21EchoControlMobileImplE DATA
_ZTVN6webrtc22CriticalSectionWindowsE DATA
_ZTVN6webrtc23IntelligibilityEnhancer17TransformCallbackE DATA
_ZTVN6webrtc25ConditionVariableEventWinE DATA
_ZTVN6webrtc26ConditionVariableNativeWinE DATA
_ZTVN6webrtc3AgcE DATA
_ZTVN6webrtc6MatrixISt7complexIfEEE DATA
_ZTVN6webrtc9RWLockWinE DATA
_ZTVN6webrtc9TraceImplE DATA
_ZThn8_N6webrtc11FileWrapper6RewindEv
_ZThn8_N6webrtc15FileWrapperImpl5WriteEPKvy
_ZThn8_N6webrtc15FileWrapperImpl6RewindEv
_ZThn8_N6webrtc15FileWrapperImplD0Ev
_ZThn8_N6webrtc15FileWrapperImplD1Ev
_ZThn8_N6webrtc15GainControlImpl10InitializeEv
_ZThn8_N6webrtc15GainControlImplD0Ev
_ZThn8_N6webrtc15GainControlImplD1Ev
_ZThn8_N6webrtc18HighPassFilterImplD0Ev
_ZThn8_N6webrtc18HighPassFilterImplD1Ev
_ZThn8_N6webrtc18LevelEstimatorImplD0Ev
_ZThn8_N6webrtc18LevelEstimatorImplD1Ev
_ZThn8_N6webrtc18VoiceDetectionImpl10InitializeEv
_ZThn8_N6webrtc18VoiceDetectionImplD0Ev
_ZThn8_N6webrtc18VoiceDetectionImplD1Ev
_ZThn8_N6webrtc19NonlinearBeamformer17ProcessAudioBlockEPKPKSt7complexIfEiyiPKPS2_
_ZThn8_N6webrtc19NonlinearBeamformerD0Ev
_ZThn8_N6webrtc19NonlinearBeamformerD1Ev
_ZThn8_N6webrtc20EchoCancellationImpl10InitializeEv
_ZThn8_N6webrtc20EchoCancellationImpl15SetExtraOptionsERKNS_6ConfigE
_ZThn8_N6webrtc20EchoCancellationImplD0Ev
_ZThn8_N6webrtc20EchoCancellationImplD1Ev
_ZThn8_N6webrtc20GainControlForNewAgc12GetMicVolumeEv
_ZThn8_N6webrtc20GainControlForNewAgc12SetMicVolumeEi
_ZThn8_N6webrtc20GainControlForNewAgcD0Ev
_ZThn8_N6webrtc20GainControlForNewAgcD1Ev
_ZThn8_N6webrtc20NoiseSuppressionImplD0Ev
_ZThn8_N6webrtc20NoiseSuppressionImplD1Ev
_ZThn8_N6webrtc21EchoControlMobileImpl10InitializeEv
_ZThn8_N6webrtc21EchoControlMobileImplD0Ev
_ZThn8_N6webrtc21EchoControlMobileImplD1Ev
_ZThn8_NK6webrtc15GainControlImpl12CreateHandleEv
_ZThn8_NK6webrtc15GainControlImpl13DestroyHandleEPv
_ZThn8_NK6webrtc15GainControlImpl14GetHandleErrorEPv
_ZThn8_NK6webrtc15GainControlImpl15ConfigureHandleEPv
_ZThn8_NK6webrtc15GainControlImpl16InitializeHandleEPv
_ZThn8_NK6webrtc15GainControlImpl20num_handles_requiredEv
_ZThn8_NK6webrtc18HighPassFilterImpl12CreateHandleEv
_ZThn8_NK6webrtc18HighPassFilterImpl13DestroyHandleEPv
_ZThn8_NK6webrtc18HighPassFilterImpl14GetHandleErrorEPv
_ZThn8_NK6webrtc18HighPassFilterImpl15ConfigureHandleEPv
_ZThn8_NK6webrtc18HighPassFilterImpl16InitializeHandleEPv
_ZThn8_NK6webrtc18HighPassFilterImpl20num_handles_requiredEv
_ZThn8_NK6webrtc18LevelEstimatorImpl12CreateHandleEv
_ZThn8_NK6webrtc18LevelEstimatorImpl13DestroyHandleEPv
_ZThn8_NK6webrtc18LevelEstimatorImpl14GetHandleErrorEPv
_ZThn8_NK6webrtc18LevelEstimatorImpl15ConfigureHandleEPv
_ZThn8_NK6webrtc18LevelEstimatorImpl16InitializeHandleEPv
_ZThn8_NK6webrtc18LevelEstimatorImpl20num_handles_requiredEv
_ZThn8_NK6webrtc18VoiceDetectionImpl12CreateHandleEv
_ZThn8_NK6webrtc18VoiceDetectionImpl13DestroyHandleEPv
_ZThn8_NK6webrtc18VoiceDetectionImpl14GetHandleErrorEPv
_ZThn8_NK6webrtc18VoiceDetectionImpl15ConfigureHandleEPv
_ZThn8_NK6webrtc18VoiceDetectionImpl16InitializeHandleEPv
_ZThn8_NK6webrtc18VoiceDetectionImpl20num_handles_requiredEv
_ZThn8_NK6webrtc20EchoCancellationImpl12CreateHandleEv
_ZThn8_NK6webrtc20EchoCancellationImpl13DestroyHandleEPv
_ZThn8_NK6webrtc20EchoCancellationImpl14GetHandleErrorEPv
_ZThn8_NK6webrtc20EchoCancellationImpl15ConfigureHandleEPv
_ZThn8_NK6webrtc20EchoCancellationImpl16InitializeHandleEPv
_ZThn8_NK6webrtc20EchoCancellationImpl20num_handles_requiredEv
_ZThn8_NK6webrtc20NoiseSuppressionImpl12CreateHandleEv
_ZThn8_NK6webrtc20NoiseSuppressionImpl13DestroyHandleEPv
_ZThn8_NK6webrtc20NoiseSuppressionImpl14GetHandleErrorEPv
_ZThn8_NK6webrtc20NoiseSuppressionImpl15ConfigureHandleEPv
_ZThn8_NK6webrtc20NoiseSuppressionImpl16InitializeHandleEPv
_ZThn8_NK6webrtc20NoiseSuppressionImpl20num_handles_requiredEv
_ZThn8_NK6webrtc21EchoControlMobileImpl12CreateHandleEv
_ZThn8_NK6webrtc21EchoControlMobileImpl13DestroyHandleEPv
_ZThn8_NK6webrtc21EchoControlMobileImpl14GetHandleErrorEPv
_ZThn8_NK6webrtc21EchoControlMobileImpl15ConfigureHandleEPv
_ZThn8_NK6webrtc21EchoControlMobileImpl16InitializeHandleEPv
_ZThn8_NK6webrtc21EchoControlMobileImpl20num_handles_requiredEv
_ZZN6webrtc6Config10identifierINS_11BeamformingEEEPvvE14id_placeholder DATA
_ZZN6webrtc6Config10identifierINS_13DelayAgnosticEEEPvvE14id_placeholder DATA
_ZZN6webrtc6Config10identifierINS_14ExperimentalNsEEEPvvE14id_placeholder DATA
_ZZN6webrtc6Config10identifierINS_14ExtendedFilterEEEPvvE14id_placeholder DATA
_ZZN6webrtc6Config10identifierINS_15ExperimentalAgcEEEPvvE14id_placeholder DATA
_ZZN6webrtc6Config10identifierINS_15IntelligibilityEEEPvvE14id_placeholder DATA
_ZZN6webrtc6Config13default_valueINS_11BeamformingEEERKT_vE3def DATA
_ZZN6webrtc6Config13default_valueINS_13DelayAgnosticEEERKT_vE3def DATA
_ZZN6webrtc6Config13default_valueINS_14ExperimentalNsEEERKT_vE3def DATA
_ZZN6webrtc6Config13default_valueINS_14ExtendedFilterEEERKT_vE3def DATA
_ZZN6webrtc6Config13default_valueINS_15ExperimentalAgcEEERKT_vE3def DATA
_ZZN6webrtc6Config13default_valueINS_15IntelligibilityEEERKT_vE3def DATA
_snprintf
aec_rdft_forward_128
aec_rdft_init
aec_rdft_init_sse2
aec_rdft_inverse_128
bitrv2_128 DATA
cft1st_128 DATA
cftbsub_128 DATA
cftfsub_128 DATA
cftmdl_128 DATA
cftmdl_wk1r DATA
main
rdft_w DATA
rdft_wk1i DATA
rdft_wk1r DATA
rdft_wk2i DATA
rdft_wk2r DATA
rdft_wk3i DATA
rdft_wk3r DATA
rdft_wk3ri_first DATA
rdft_wk3ri_second DATA
rftbsub_128 DATA
rftfsub_128 DATA
